Archive member included because of file (symbol)

c:/apps/yagarto/bin/../lib/gcc/arm-elf/4.4.2/../../../../arm-elf/lib/thumb/thumb2\libc.a(lib_a-fopen.o)
                              ./src/application/app.o (fopen)
c:/apps/yagarto/bin/../lib/gcc/arm-elf/4.4.2/../../../../arm-elf/lib/thumb/thumb2\libc.a(lib_a-fprintf.o)
                              ./src/application/app.o (fprintf)
c:/apps/yagarto/bin/../lib/gcc/arm-elf/4.4.2/../../../../arm-elf/lib/thumb/thumb2\libc.a(lib_a-fseek.o)
                              c:/apps/yagarto/bin/../lib/gcc/arm-elf/4.4.2/../../../../arm-elf/lib/thumb/thumb2\libc.a(lib_a-fopen.o) (_fseek_r)
c:/apps/yagarto/bin/../lib/gcc/arm-elf/4.4.2/../../../../arm-elf/lib/thumb/thumb2\libc.a(lib_a-fstatr.o)
                              c:/apps/yagarto/bin/../lib/gcc/arm-elf/4.4.2/../../../../arm-elf/lib/thumb/thumb2\libc.a(lib_a-fseek.o) (_fstat_r)
c:/apps/yagarto/bin/../lib/gcc/arm-elf/4.4.2/../../../../arm-elf/lib/thumb/thumb2\libc.a(lib_a-fwrite.o)
                              ./src/application/app.o (fwrite)
c:/apps/yagarto/bin/../lib/gcc/arm-elf/4.4.2/../../../../arm-elf/lib/thumb/thumb2\libc.a(lib_a-impure.o)
                              c:/apps/yagarto/bin/../lib/gcc/arm-elf/4.4.2/../../../../arm-elf/lib/thumb/thumb2\libc.a(lib_a-fopen.o) (_impure_ptr)
c:/apps/yagarto/bin/../lib/gcc/arm-elf/4.4.2/../../../../arm-elf/lib/thumb/thumb2\libc.a(lib_a-makebuf.o)
                              c:/apps/yagarto/bin/../lib/gcc/arm-elf/4.4.2/../../../../arm-elf/lib/thumb/thumb2\libc.a(lib_a-fseek.o) (__smakebuf_r)
c:/apps/yagarto/bin/../lib/gcc/arm-elf/4.4.2/../../../../arm-elf/lib/thumb/thumb2\libc.a(lib_a-mallocr.o)
                              c:/apps/yagarto/bin/../lib/gcc/arm-elf/4.4.2/../../../../arm-elf/lib/thumb/thumb2\libc.a(lib_a-makebuf.o) (_malloc_r)
c:/apps/yagarto/bin/../lib/gcc/arm-elf/4.4.2/../../../../arm-elf/lib/thumb/thumb2\libc.a(lib_a-memset.o)
                              c:/apps/yagarto/bin/../lib/gcc/arm-elf/4.4.2/../../../../arm-elf/lib/thumb/thumb2\libc.a(lib_a-fseek.o) (memset)
c:/apps/yagarto/bin/../lib/gcc/arm-elf/4.4.2/../../../../arm-elf/lib/thumb/thumb2\libc.a(lib_a-mlock.o)
                              c:/apps/yagarto/bin/../lib/gcc/arm-elf/4.4.2/../../../../arm-elf/lib/thumb/thumb2\libc.a(lib_a-mallocr.o) (__malloc_lock)
c:/apps/yagarto/bin/../lib/gcc/arm-elf/4.4.2/../../../../arm-elf/lib/thumb/thumb2\libc.a(lib_a-openr.o)
                              c:/apps/yagarto/bin/../lib/gcc/arm-elf/4.4.2/../../../../arm-elf/lib/thumb/thumb2\libc.a(lib_a-fopen.o) (_open_r)
c:/apps/yagarto/bin/../lib/gcc/arm-elf/4.4.2/../../../../arm-elf/lib/thumb/thumb2\libc.a(lib_a-rand.o)
                              ./src/sram/fsmc_sram.o (rand)
c:/apps/yagarto/bin/../lib/gcc/arm-elf/4.4.2/../../../../arm-elf/lib/thumb/thumb2\libc.a(lib_a-reent.o)
                              c:/apps/yagarto/bin/../lib/gcc/arm-elf/4.4.2/../../../../arm-elf/lib/thumb/thumb2\libc.a(lib_a-fstatr.o) (errno)
c:/apps/yagarto/bin/../lib/gcc/arm-elf/4.4.2/../../../../arm-elf/lib/thumb/thumb2\libc.a(lib_a-refill.o)
                              c:/apps/yagarto/bin/../lib/gcc/arm-elf/4.4.2/../../../../arm-elf/lib/thumb/thumb2\libc.a(lib_a-fseek.o) (__srefill_r)
c:/apps/yagarto/bin/../lib/gcc/arm-elf/4.4.2/../../../../arm-elf/lib/thumb/thumb2\libc.a(lib_a-sbrkr.o)
                              c:/apps/yagarto/bin/../lib/gcc/arm-elf/4.4.2/../../../../arm-elf/lib/thumb/thumb2\libc.a(lib_a-mallocr.o) (_sbrk_r)
c:/apps/yagarto/bin/../lib/gcc/arm-elf/4.4.2/../../../../arm-elf/lib/thumb/thumb2\libc.a(lib_a-stdio.o)
                              c:/apps/yagarto/bin/../lib/gcc/arm-elf/4.4.2/../../../../arm-elf/lib/thumb/thumb2\libc.a(lib_a-fopen.o) (__sclose)
c:/apps/yagarto/bin/../lib/gcc/arm-elf/4.4.2/../../../../arm-elf/lib/thumb/thumb2\libc.a(lib_a-strcmp.o)
                              ./src/bsp/stm32f10x_syscall.o (strcmp)
c:/apps/yagarto/bin/../lib/gcc/arm-elf/4.4.2/../../../../arm-elf/lib/thumb/thumb2\libc.a(lib_a-vfprintf.o)
                              c:/apps/yagarto/bin/../lib/gcc/arm-elf/4.4.2/../../../../arm-elf/lib/thumb/thumb2\libc.a(lib_a-fprintf.o) (_vfprintf_r)
c:/apps/yagarto/bin/../lib/gcc/arm-elf/4.4.2/../../../../arm-elf/lib/thumb/thumb2\libc.a(lib_a-writer.o)
                              c:/apps/yagarto/bin/../lib/gcc/arm-elf/4.4.2/../../../../arm-elf/lib/thumb/thumb2\libc.a(lib_a-stdio.o) (_write_r)
c:/apps/yagarto/bin/../lib/gcc/arm-elf/4.4.2/../../../../arm-elf/lib/thumb/thumb2\libc.a(lib_a-wsetup.o)
                              c:/apps/yagarto/bin/../lib/gcc/arm-elf/4.4.2/../../../../arm-elf/lib/thumb/thumb2\libc.a(lib_a-vfprintf.o) (__swsetup_r)
c:/apps/yagarto/bin/../lib/gcc/arm-elf/4.4.2/../../../../arm-elf/lib/thumb/thumb2\libc.a(lib_a-closer.o)
                              c:/apps/yagarto/bin/../lib/gcc/arm-elf/4.4.2/../../../../arm-elf/lib/thumb/thumb2\libc.a(lib_a-stdio.o) (_close_r)
c:/apps/yagarto/bin/../lib/gcc/arm-elf/4.4.2/../../../../arm-elf/lib/thumb/thumb2\libc.a(lib_a-dtoa.o)
                              c:/apps/yagarto/bin/../lib/gcc/arm-elf/4.4.2/../../../../arm-elf/lib/thumb/thumb2\libc.a(lib_a-vfprintf.o) (_dtoa_r)
c:/apps/yagarto/bin/../lib/gcc/arm-elf/4.4.2/../../../../arm-elf/lib/thumb/thumb2\libc.a(lib_a-fflush.o)
                              c:/apps/yagarto/bin/../lib/gcc/arm-elf/4.4.2/../../../../arm-elf/lib/thumb/thumb2\libc.a(lib_a-fseek.o) (_fflush_r)
c:/apps/yagarto/bin/../lib/gcc/arm-elf/4.4.2/../../../../arm-elf/lib/thumb/thumb2\libc.a(lib_a-findfp.o)
                              c:/apps/yagarto/bin/../lib/gcc/arm-elf/4.4.2/../../../../arm-elf/lib/thumb/thumb2\libc.a(lib_a-fopen.o) (__sfp_lock_acquire)
c:/apps/yagarto/bin/../lib/gcc/arm-elf/4.4.2/../../../../arm-elf/lib/thumb/thumb2\libc.a(lib_a-flags.o)
                              c:/apps/yagarto/bin/../lib/gcc/arm-elf/4.4.2/../../../../arm-elf/lib/thumb/thumb2\libc.a(lib_a-fopen.o) (__sflags)
c:/apps/yagarto/bin/../lib/gcc/arm-elf/4.4.2/../../../../arm-elf/lib/thumb/thumb2\libc.a(lib_a-freer.o)
                              c:/apps/yagarto/bin/../lib/gcc/arm-elf/4.4.2/../../../../arm-elf/lib/thumb/thumb2\libc.a(lib_a-fseek.o) (_free_r)
c:/apps/yagarto/bin/../lib/gcc/arm-elf/4.4.2/../../../../arm-elf/lib/thumb/thumb2\libc.a(lib_a-fvwrite.o)
                              c:/apps/yagarto/bin/../lib/gcc/arm-elf/4.4.2/../../../../arm-elf/lib/thumb/thumb2\libc.a(lib_a-fwrite.o) (__sfvwrite_r)
c:/apps/yagarto/bin/../lib/gcc/arm-elf/4.4.2/../../../../arm-elf/lib/thumb/thumb2\libc.a(lib_a-fwalk.o)
                              c:/apps/yagarto/bin/../lib/gcc/arm-elf/4.4.2/../../../../arm-elf/lib/thumb/thumb2\libc.a(lib_a-fflush.o) (_fwalk_reent)
c:/apps/yagarto/bin/../lib/gcc/arm-elf/4.4.2/../../../../arm-elf/lib/thumb/thumb2\libc.a(lib_a-isattyr.o)
                              c:/apps/yagarto/bin/../lib/gcc/arm-elf/4.4.2/../../../../arm-elf/lib/thumb/thumb2\libc.a(lib_a-makebuf.o) (_isatty_r)
c:/apps/yagarto/bin/../lib/gcc/arm-elf/4.4.2/../../../../arm-elf/lib/thumb/thumb2\libc.a(lib_a-locale.o)
                              c:/apps/yagarto/bin/../lib/gcc/arm-elf/4.4.2/../../../../arm-elf/lib/thumb/thumb2\libc.a(lib_a-vfprintf.o) (_localeconv_r)
c:/apps/yagarto/bin/../lib/gcc/arm-elf/4.4.2/../../../../arm-elf/lib/thumb/thumb2\libc.a(lib_a-lseekr.o)
                              c:/apps/yagarto/bin/../lib/gcc/arm-elf/4.4.2/../../../../arm-elf/lib/thumb/thumb2\libc.a(lib_a-stdio.o) (_lseek_r)
c:/apps/yagarto/bin/../lib/gcc/arm-elf/4.4.2/../../../../arm-elf/lib/thumb/thumb2\libc.a(lib_a-malloc.o)
                              c:/apps/yagarto/bin/../lib/gcc/arm-elf/4.4.2/../../../../arm-elf/lib/thumb/thumb2\libc.a(lib_a-rand.o) (malloc)
c:/apps/yagarto/bin/../lib/gcc/arm-elf/4.4.2/../../../../arm-elf/lib/thumb/thumb2\libc.a(lib_a-memchr.o)
                              c:/apps/yagarto/bin/../lib/gcc/arm-elf/4.4.2/../../../../arm-elf/lib/thumb/thumb2\libc.a(lib_a-vfprintf.o) (memchr)
c:/apps/yagarto/bin/../lib/gcc/arm-elf/4.4.2/../../../../arm-elf/lib/thumb/thumb2\libc.a(lib_a-memcpy.o)
                              c:/apps/yagarto/bin/../lib/gcc/arm-elf/4.4.2/../../../../arm-elf/lib/thumb/thumb2\libc.a(lib_a-dtoa.o) (memcpy)
c:/apps/yagarto/bin/../lib/gcc/arm-elf/4.4.2/../../../../arm-elf/lib/thumb/thumb2\libc.a(lib_a-memmove.o)
                              c:/apps/yagarto/bin/../lib/gcc/arm-elf/4.4.2/../../../../arm-elf/lib/thumb/thumb2\libc.a(lib_a-fvwrite.o) (memmove)
c:/apps/yagarto/bin/../lib/gcc/arm-elf/4.4.2/../../../../arm-elf/lib/thumb/thumb2\libc.a(lib_a-mprec.o)
                              c:/apps/yagarto/bin/../lib/gcc/arm-elf/4.4.2/../../../../arm-elf/lib/thumb/thumb2\libc.a(lib_a-dtoa.o) (__hi0bits)
c:/apps/yagarto/bin/../lib/gcc/arm-elf/4.4.2/../../../../arm-elf/lib/thumb/thumb2\libc.a(lib_a-readr.o)
                              c:/apps/yagarto/bin/../lib/gcc/arm-elf/4.4.2/../../../../arm-elf/lib/thumb/thumb2\libc.a(lib_a-stdio.o) (_read_r)
c:/apps/yagarto/bin/../lib/gcc/arm-elf/4.4.2/../../../../arm-elf/lib/thumb/thumb2\libc.a(lib_a-reallocr.o)
                              c:/apps/yagarto/bin/../lib/gcc/arm-elf/4.4.2/../../../../arm-elf/lib/thumb/thumb2\libc.a(lib_a-fvwrite.o) (_realloc_r)
c:/apps/yagarto/bin/../lib/gcc/arm-elf/4.4.2/../../../../arm-elf/lib/thumb/thumb2\libc.a(lib_a-s_isinfd.o)
                              c:/apps/yagarto/bin/../lib/gcc/arm-elf/4.4.2/../../../../arm-elf/lib/thumb/thumb2\libc.a(lib_a-vfprintf.o) (__isinfd)
c:/apps/yagarto/bin/../lib/gcc/arm-elf/4.4.2/../../../../arm-elf/lib/thumb/thumb2\libc.a(lib_a-s_isnand.o)
                              c:/apps/yagarto/bin/../lib/gcc/arm-elf/4.4.2/../../../../arm-elf/lib/thumb/thumb2\libc.a(lib_a-vfprintf.o) (__isnand)
c:/apps/yagarto/bin/../lib/gcc/arm-elf/4.4.2/../../../../arm-elf/lib/thumb/thumb2\libc.a(lib_a-strlen.o)
                              c:/apps/yagarto/bin/../lib/gcc/arm-elf/4.4.2/../../../../arm-elf/lib/thumb/thumb2\libc.a(lib_a-vfprintf.o) (strlen)
c:/apps/yagarto/bin/../lib/gcc/arm-elf/4.4.2/../../../../arm-elf/lib/thumb/thumb2\libc.a(lib_a-callocr.o)
                              c:/apps/yagarto/bin/../lib/gcc/arm-elf/4.4.2/../../../../arm-elf/lib/thumb/thumb2\libc.a(lib_a-mprec.o) (_calloc_r)
c:/apps/yagarto/bin/../lib/gcc/arm-elf/4.4.2/../../../../arm-elf/lib/thumb/thumb2\libc.a(lib_a-fclose.o)
                              c:/apps/yagarto/bin/../lib/gcc/arm-elf/4.4.2/../../../../arm-elf/lib/thumb/thumb2\libc.a(lib_a-findfp.o) (fclose)
c:/apps/yagarto/bin/../lib/gcc/arm-elf/4.4.2/thumb/thumb2\libgcc.a(_udivsi3.o)
                              c:/apps/yagarto/bin/../lib/gcc/arm-elf/4.4.2/../../../../arm-elf/lib/thumb/thumb2\libc.a(lib_a-fwrite.o) (__udivsi3)
c:/apps/yagarto/bin/../lib/gcc/arm-elf/4.4.2/thumb/thumb2\libgcc.a(_dvmd_tls.o)
                              c:/apps/yagarto/bin/../lib/gcc/arm-elf/4.4.2/thumb/thumb2\libgcc.a(_udivsi3.o) (__div0)
c:/apps/yagarto/bin/../lib/gcc/arm-elf/4.4.2/thumb/thumb2\libgcc.a(_arm_addsubdf3.o)
                              c:/apps/yagarto/bin/../lib/gcc/arm-elf/4.4.2/../../../../arm-elf/lib/thumb/thumb2\libc.a(lib_a-dtoa.o) (__subdf3)
c:/apps/yagarto/bin/../lib/gcc/arm-elf/4.4.2/thumb/thumb2\libgcc.a(_arm_muldivdf3.o)
                              c:/apps/yagarto/bin/../lib/gcc/arm-elf/4.4.2/../../../../arm-elf/lib/thumb/thumb2\libc.a(lib_a-dtoa.o) (__muldf3)
c:/apps/yagarto/bin/../lib/gcc/arm-elf/4.4.2/thumb/thumb2\libgcc.a(_arm_cmpdf2.o)
                              c:/apps/yagarto/bin/../lib/gcc/arm-elf/4.4.2/../../../../arm-elf/lib/thumb/thumb2\libc.a(lib_a-dtoa.o) (__gtdf2)
c:/apps/yagarto/bin/../lib/gcc/arm-elf/4.4.2/thumb/thumb2\libgcc.a(_arm_fixdfsi.o)
                              c:/apps/yagarto/bin/../lib/gcc/arm-elf/4.4.2/../../../../arm-elf/lib/thumb/thumb2\libc.a(lib_a-dtoa.o) (__fixdfsi)

Allocating common symbols
Common symbol       size              file

SaveRState          0x2               ./lib/./STM32_USB-FS-Device_Driver/src/usb_int.o
OSTmrFreeList       0x4               ./lib/./uCOS-II/Source/os_core.o
OSTmrWheelTbl       0x40              ./lib/./uCOS-II/Source/os_core.o
SDIO_CmdInitStructure
                    0x14              ./src/bsp/sdcard.o
HSEStartUpStatus    0x4               ./src/usb/hw_config.o
OSLockNesting       0x1               ./lib/./uCOS-II/Source/os_core.o
OSTmrSemSignal      0x4               ./lib/./uCOS-II/Source/os_core.o
OSRunning           0x1               ./lib/./uCOS-II/Source/os_core.o
OSIdleCtr           0x4               ./lib/./uCOS-II/Source/os_core.o
OSTmrUsed           0x2               ./lib/./uCOS-II/Source/os_core.o
SaveState           0x2               ./lib/./STM32_USB-FS-Device_Driver/src/usb_init.o
OSPrioHighRdy       0x1               ./lib/./uCOS-II/Source/os_core.o
errno               0x4               c:/apps/yagarto/bin/../lib/gcc/arm-elf/4.4.2/../../../../arm-elf/lib/thumb/thumb2\libc.a(lib_a-reent.o)
OSFlagTbl           0x8c              ./lib/./uCOS-II/Source/os_core.o
OSTmrTbl            0x340             ./lib/./uCOS-II/Source/os_core.o
DestBuffer          0x4               ./src/bsp/sdcard.o
OSPrioCur           0x1               ./lib/./uCOS-II/Source/os_core.o
OSTCBList           0x4               ./lib/./uCOS-II/Source/os_core.o
OSMemTbl            0xb4              ./lib/./uCOS-II/Source/os_core.o
OSTickStepState     0x1               ./lib/./uCOS-II/Source/os_core.o
wIstr               0x2               ./src/usb/usb_istr.o
OSTaskStatStk       0x200             ./lib/./uCOS-II/Source/os_core.o
pProperty           0x4               ./lib/./STM32_USB-FS-Device_Driver/src/usb_init.o
fp_usart1           0x4               ./src/application/app.o
OSCtxSwCtr          0x4               ./lib/./uCOS-II/Source/os_core.o
Buffer_Block_Tx     0x200             ./src/bsp/bsp.o
Buffer_MultiBlock_Rx
                    0x400             ./src/bsp/bsp.o
EPindex             0x1               ./lib/./STM32_USB-FS-Device_Driver/src/usb_init.o
OSTmrFree           0x2               ./lib/./uCOS-II/Source/os_core.o
OSIdleCtrMax        0x4               ./lib/./uCOS-II/Source/os_core.o
SDCardInfo          0x50              ./src/bsp/bsp.o
SDIO_InitStructure  0x18              ./src/bsp/sdcard.o
OSTCBFreeList       0x4               ./lib/./uCOS-II/Source/os_core.o
SaveTState          0x2               ./lib/./STM32_USB-FS-Device_Driver/src/usb_int.o
Device_Info         0x24              ./lib/./STM32_USB-FS-Device_Driver/src/usb_init.o
SDIO_DataInitStructure
                    0x18              ./src/bsp/sdcard.o
OSCPUUsage          0x1               ./lib/./uCOS-II/Source/os_core.o
pUser_Standard_Requests
                    0x4               ./lib/./STM32_USB-FS-Device_Driver/src/usb_init.o
Buffer_Block_Rx     0x200             ./src/bsp/bsp.o
OSTaskCtr           0x1               ./lib/./uCOS-II/Source/os_core.o
OSMemFreeList       0x4               ./lib/./uCOS-II/Source/os_core.o
OSQTbl              0x60              ./lib/./uCOS-II/Source/os_core.o
SrcBuffer           0x4               ./src/bsp/sdcard.o
OSTCBHighRdy        0x4               ./lib/./uCOS-II/Source/os_core.o
buffer_in           0x40              ./src/usb/hw_config.o
OSQFreeList         0x4               ./lib/./uCOS-II/Source/os_core.o
StatusInfo          0x4               ./lib/./STM32_USB-FS-Device_Driver/src/usb_core.o
pInformation        0x4               ./lib/./STM32_USB-FS-Device_Driver/src/usb_init.o
ResumeS             0x8               ./src/usb/usb_pwr.o
OSRdyGrp            0x1               ./lib/./uCOS-II/Source/os_core.o
OSRdyTbl            0x8               ./lib/./uCOS-II/Source/os_core.o
USART_InitStructure
                    0x10              ./src/usb/hw_config.o
OSTmrTaskStk        0x200             ./lib/./uCOS-II/Source/os_core.o
OSEventFreeList     0x4               ./lib/./uCOS-II/Source/os_core.o
OSIntNesting        0x1               ./lib/./uCOS-II/Source/os_core.o
OSTCBCur            0x4               ./lib/./uCOS-II/Source/os_core.o
OSTmrTime           0x4               ./lib/./uCOS-II/Source/os_core.o
OSTime              0x4               ./lib/./uCOS-II/Source/os_core.o
OSTmrSem            0x4               ./lib/./uCOS-II/Source/os_core.o
OSTaskIdleStk       0x200             ./lib/./uCOS-II/Source/os_core.o
OSEventTbl          0x168             ./lib/./uCOS-II/Source/os_core.o
OSTCBTbl            0x7e8             ./lib/./uCOS-II/Source/os_core.o
OSFlagFreeList      0x4               ./lib/./uCOS-II/Source/os_core.o
OSStatRdy           0x1               ./lib/./uCOS-II/Source/os_core.o
OSTCBPrioTbl        0x100             ./lib/./uCOS-II/Source/os_core.o
Buffer_MultiBlock_Tx
                    0x400             ./src/bsp/bsp.o
buffer_out          0x40              ./src/bsp/bsp_globals.o
wInterrupt_Mask     0x2               ./lib/./STM32_USB-FS-Device_Driver/src/usb_init.o
OSIdleCtrRun        0x4               ./lib/./uCOS-II/Source/os_core.o
USART1_BUFFER_IN    0x14              ./src/bsp/bsp_globals.o

Discarded input sections

 .eh_frame      0x00000000        0x0 ./lib/./STM32F10x_StdPeriph_Driver/src/misc.o
 .eh_frame      0x00000000        0x0 ./lib/./STM32F10x_StdPeriph_Driver/src/stm32f10x_dbgmcu.o
 .eh_frame      0x00000000        0x0 ./lib/./STM32F10x_StdPeriph_Driver/src/stm32f10x_flash.o
 .eh_frame      0x00000000        0x0 ./lib/./STM32F10x_StdPeriph_Driver/src/stm32f10x_gpio.o
 .eh_frame      0x00000000        0x0 ./lib/./STM32F10x_StdPeriph_Driver/src/stm32f10x_rcc.o
 .eh_frame      0x00000000        0x0 ./lib/./STM32F10x_StdPeriph_Driver/src/stm32f10x_sdio.o
 .eh_frame      0x00000000        0x0 ./lib/./STM32F10x_StdPeriph_Driver/src/stm32f10x_usart.o
 .eh_frame      0x00000000        0x0 ./lib/./STM32F10x_StdPeriph_Driver/src/stm32f10x_i2c.o
 .eh_frame      0x00000000        0x0 ./lib/./STM32F10x_StdPeriph_Driver/src/stm32f10x_dma.o
 .eh_frame      0x00000000        0x0 ./lib/./STM32F10x_StdPeriph_Driver/src/stm32f10x_adc.o
 .eh_frame      0x00000000        0x0 ./lib/./STM32F10x_StdPeriph_Driver/src/stm32f10x_dac.o
 .eh_frame      0x00000000        0x0 ./lib/./STM32F10x_StdPeriph_Driver/src/stm32f10x_tim.o
 .eh_frame      0x00000000        0x0 ./lib/./STM32F10x_StdPeriph_Driver/src/stm32f10x_fsmc.o
 .eh_frame      0x00000000        0x0 ./lib/./STM32F10x_StdPeriph_Driver/src/stm32f10x_exti.o
 .eh_frame      0x00000000        0x0 ./lib/./STM32F10x_StdPeriph_Driver/src/stm32f10x_bkp.o
 .eh_frame      0x00000000        0x0 ./lib/./STM32F10x_StdPeriph_Driver/src/stm32f10x_pwr.o
 .eh_frame      0x00000000        0x0 ./lib/./uC-CPU/Cortex-M3/GCC/cpu_c.o
 .eh_frame      0x00000000        0x0 ./lib/./uCOS-II/Ports/ARM-Cortex-M3/Generic/GCC/os_cpu_c.o
 .eh_frame      0x00000000        0x0 ./lib/./uCOS-II/Ports/ARM-Cortex-M3/Generic/GCC/os_dbg.o
 .eh_frame      0x00000000        0x0 ./lib/./uCOS-II/Source/os_core.o
 .eh_frame      0x00000000        0x0 ./lib/./uCOS-II/Source/os_flag.o
 .eh_frame      0x00000000        0x0 ./lib/./uCOS-II/Source/os_mbox.o
 .eh_frame      0x00000000        0x0 ./lib/./uCOS-II/Source/os_mem.o
 .eh_frame      0x00000000        0x0 ./lib/./uCOS-II/Source/os_mutex.o
 .eh_frame      0x00000000        0x0 ./lib/./uCOS-II/Source/os_q.o
 .eh_frame      0x00000000        0x0 ./lib/./uCOS-II/Source/os_sem.o
 .eh_frame      0x00000000        0x0 ./lib/./uCOS-II/Source/os_task.o
 .eh_frame      0x00000000        0x0 ./lib/./uCOS-II/Source/os_time.o
 .eh_frame      0x00000000        0x0 ./lib/./uCOS-II/Source/os_tmr.o
 .eh_frame      0x00000000        0x0 ./lib/./STM32_USB-FS-Device_Driver/src/usb_core.o
 .eh_frame      0x00000000        0x0 ./lib/./STM32_USB-FS-Device_Driver/src/usb_init.o
 .eh_frame      0x00000000        0x0 ./lib/./STM32_USB-FS-Device_Driver/src/usb_int.o
 .eh_frame      0x00000000        0x0 ./lib/./STM32_USB-FS-Device_Driver/src/usb_mem.o
 .eh_frame      0x00000000        0x0 ./lib/./STM32_USB-FS-Device_Driver/src/usb_regs.o
 .eh_frame      0x00000000        0x0 ./lib/./STM32_USB-FS-Device_Driver/src/usb_sil.o
 .eh_frame      0x00000000        0x0 ./src/application/app.o
 .eh_frame      0x00000000        0x0 ./src/bsp/bsp.o
 .eh_frame      0x00000000        0x0 ./src/bsp/bsp_utils.o
 .eh_frame      0x00000000        0x0 ./src/bsp/app_int.o
 .eh_frame      0x00000000        0x0 ./src/bsp/stm32f10x_startup.o
 .eh_frame      0x00000000        0x0 ./src/bsp/stm32f10x_syscall.o
 .eh_frame      0x00000000        0x0 ./src/bsp/sdcard.o
 .eh_frame      0x00000000        0x0 ./src/usb/usb_endp.o
 .eh_frame      0x00000000        0x0 ./src/usb/usb_istr.o
 .eh_frame      0x00000000        0x0 ./src/usb/usb_prop.o
 .eh_frame      0x00000000        0x0 ./src/usb/usb_pwr.o
 .eh_frame      0x00000000        0x0 ./src/usb/hw_config.o
 .eh_frame      0x00000000        0x0 ./src/sram/fsmc_sram.o
 .eh_frame      0x00000000        0x0 c:/apps/yagarto/bin/../lib/gcc/arm-elf/4.4.2/../../../../arm-elf/lib/thumb/thumb2\libc.a(lib_a-fopen.o)
 .eh_frame      0x00000000        0x0 c:/apps/yagarto/bin/../lib/gcc/arm-elf/4.4.2/../../../../arm-elf/lib/thumb/thumb2\libc.a(lib_a-fprintf.o)
 .eh_frame      0x00000000        0x0 c:/apps/yagarto/bin/../lib/gcc/arm-elf/4.4.2/../../../../arm-elf/lib/thumb/thumb2\libc.a(lib_a-fseek.o)
 .eh_frame      0x00000000        0x0 c:/apps/yagarto/bin/../lib/gcc/arm-elf/4.4.2/../../../../arm-elf/lib/thumb/thumb2\libc.a(lib_a-fstatr.o)
 .eh_frame      0x00000000        0x0 c:/apps/yagarto/bin/../lib/gcc/arm-elf/4.4.2/../../../../arm-elf/lib/thumb/thumb2\libc.a(lib_a-fwrite.o)
 .eh_frame      0x00000000        0x0 c:/apps/yagarto/bin/../lib/gcc/arm-elf/4.4.2/../../../../arm-elf/lib/thumb/thumb2\libc.a(lib_a-makebuf.o)
 .eh_frame      0x00000000        0x0 c:/apps/yagarto/bin/../lib/gcc/arm-elf/4.4.2/../../../../arm-elf/lib/thumb/thumb2\libc.a(lib_a-mallocr.o)
 .eh_frame      0x00000000        0x0 c:/apps/yagarto/bin/../lib/gcc/arm-elf/4.4.2/../../../../arm-elf/lib/thumb/thumb2\libc.a(lib_a-memset.o)
 .eh_frame      0x00000000        0x0 c:/apps/yagarto/bin/../lib/gcc/arm-elf/4.4.2/../../../../arm-elf/lib/thumb/thumb2\libc.a(lib_a-mlock.o)
 .eh_frame      0x00000000        0x0 c:/apps/yagarto/bin/../lib/gcc/arm-elf/4.4.2/../../../../arm-elf/lib/thumb/thumb2\libc.a(lib_a-openr.o)
 .eh_frame      0x00000000        0x0 c:/apps/yagarto/bin/../lib/gcc/arm-elf/4.4.2/../../../../arm-elf/lib/thumb/thumb2\libc.a(lib_a-rand.o)
 .eh_frame      0x00000000        0x0 c:/apps/yagarto/bin/../lib/gcc/arm-elf/4.4.2/../../../../arm-elf/lib/thumb/thumb2\libc.a(lib_a-reent.o)
 .eh_frame      0x00000000        0x0 c:/apps/yagarto/bin/../lib/gcc/arm-elf/4.4.2/../../../../arm-elf/lib/thumb/thumb2\libc.a(lib_a-refill.o)
 .eh_frame      0x00000000        0x0 c:/apps/yagarto/bin/../lib/gcc/arm-elf/4.4.2/../../../../arm-elf/lib/thumb/thumb2\libc.a(lib_a-sbrkr.o)
 .eh_frame      0x00000000        0x0 c:/apps/yagarto/bin/../lib/gcc/arm-elf/4.4.2/../../../../arm-elf/lib/thumb/thumb2\libc.a(lib_a-stdio.o)
 .eh_frame      0x00000000        0x0 c:/apps/yagarto/bin/../lib/gcc/arm-elf/4.4.2/../../../../arm-elf/lib/thumb/thumb2\libc.a(lib_a-strcmp.o)
 .eh_frame      0x00000000        0x0 c:/apps/yagarto/bin/../lib/gcc/arm-elf/4.4.2/../../../../arm-elf/lib/thumb/thumb2\libc.a(lib_a-vfprintf.o)
 .eh_frame      0x00000000        0x0 c:/apps/yagarto/bin/../lib/gcc/arm-elf/4.4.2/../../../../arm-elf/lib/thumb/thumb2\libc.a(lib_a-writer.o)
 .eh_frame      0x00000000        0x0 c:/apps/yagarto/bin/../lib/gcc/arm-elf/4.4.2/../../../../arm-elf/lib/thumb/thumb2\libc.a(lib_a-wsetup.o)
 .eh_frame      0x00000000        0x0 c:/apps/yagarto/bin/../lib/gcc/arm-elf/4.4.2/../../../../arm-elf/lib/thumb/thumb2\libc.a(lib_a-closer.o)
 .eh_frame      0x00000000        0x0 c:/apps/yagarto/bin/../lib/gcc/arm-elf/4.4.2/../../../../arm-elf/lib/thumb/thumb2\libc.a(lib_a-dtoa.o)
 .eh_frame      0x00000000        0x0 c:/apps/yagarto/bin/../lib/gcc/arm-elf/4.4.2/../../../../arm-elf/lib/thumb/thumb2\libc.a(lib_a-fflush.o)
 .eh_frame      0x00000000        0x0 c:/apps/yagarto/bin/../lib/gcc/arm-elf/4.4.2/../../../../arm-elf/lib/thumb/thumb2\libc.a(lib_a-findfp.o)
 .eh_frame      0x00000000        0x0 c:/apps/yagarto/bin/../lib/gcc/arm-elf/4.4.2/../../../../arm-elf/lib/thumb/thumb2\libc.a(lib_a-flags.o)
 .eh_frame      0x00000000        0x0 c:/apps/yagarto/bin/../lib/gcc/arm-elf/4.4.2/../../../../arm-elf/lib/thumb/thumb2\libc.a(lib_a-freer.o)
 .eh_frame      0x00000000        0x0 c:/apps/yagarto/bin/../lib/gcc/arm-elf/4.4.2/../../../../arm-elf/lib/thumb/thumb2\libc.a(lib_a-fvwrite.o)
 .eh_frame      0x00000000        0x0 c:/apps/yagarto/bin/../lib/gcc/arm-elf/4.4.2/../../../../arm-elf/lib/thumb/thumb2\libc.a(lib_a-fwalk.o)
 .eh_frame      0x00000000        0x0 c:/apps/yagarto/bin/../lib/gcc/arm-elf/4.4.2/../../../../arm-elf/lib/thumb/thumb2\libc.a(lib_a-isattyr.o)
 .eh_frame      0x00000000        0x0 c:/apps/yagarto/bin/../lib/gcc/arm-elf/4.4.2/../../../../arm-elf/lib/thumb/thumb2\libc.a(lib_a-locale.o)
 .eh_frame      0x00000000        0x0 c:/apps/yagarto/bin/../lib/gcc/arm-elf/4.4.2/../../../../arm-elf/lib/thumb/thumb2\libc.a(lib_a-lseekr.o)
 .eh_frame      0x00000000        0x0 c:/apps/yagarto/bin/../lib/gcc/arm-elf/4.4.2/../../../../arm-elf/lib/thumb/thumb2\libc.a(lib_a-malloc.o)
 .eh_frame      0x00000000        0x0 c:/apps/yagarto/bin/../lib/gcc/arm-elf/4.4.2/../../../../arm-elf/lib/thumb/thumb2\libc.a(lib_a-memchr.o)
 .eh_frame      0x00000000        0x0 c:/apps/yagarto/bin/../lib/gcc/arm-elf/4.4.2/../../../../arm-elf/lib/thumb/thumb2\libc.a(lib_a-memcpy.o)
 .eh_frame      0x00000000        0x0 c:/apps/yagarto/bin/../lib/gcc/arm-elf/4.4.2/../../../../arm-elf/lib/thumb/thumb2\libc.a(lib_a-memmove.o)
 .eh_frame      0x00000000        0x0 c:/apps/yagarto/bin/../lib/gcc/arm-elf/4.4.2/../../../../arm-elf/lib/thumb/thumb2\libc.a(lib_a-mprec.o)
 .eh_frame      0x00000000        0x0 c:/apps/yagarto/bin/../lib/gcc/arm-elf/4.4.2/../../../../arm-elf/lib/thumb/thumb2\libc.a(lib_a-readr.o)
 .eh_frame      0x00000000        0x0 c:/apps/yagarto/bin/../lib/gcc/arm-elf/4.4.2/../../../../arm-elf/lib/thumb/thumb2\libc.a(lib_a-reallocr.o)
 .eh_frame      0x00000000        0x0 c:/apps/yagarto/bin/../lib/gcc/arm-elf/4.4.2/../../../../arm-elf/lib/thumb/thumb2\libc.a(lib_a-s_isinfd.o)
 .eh_frame      0x00000000        0x0 c:/apps/yagarto/bin/../lib/gcc/arm-elf/4.4.2/../../../../arm-elf/lib/thumb/thumb2\libc.a(lib_a-s_isnand.o)
 .eh_frame      0x00000000        0x0 c:/apps/yagarto/bin/../lib/gcc/arm-elf/4.4.2/../../../../arm-elf/lib/thumb/thumb2\libc.a(lib_a-strlen.o)
 .eh_frame      0x00000000        0x0 c:/apps/yagarto/bin/../lib/gcc/arm-elf/4.4.2/../../../../arm-elf/lib/thumb/thumb2\libc.a(lib_a-callocr.o)
 .eh_frame      0x00000000        0x0 c:/apps/yagarto/bin/../lib/gcc/arm-elf/4.4.2/../../../../arm-elf/lib/thumb/thumb2\libc.a(lib_a-fclose.o)

Memory Configuration

Name             Origin             Length             Attributes
FLASH            0x00000000         0x00080000         xr
SRAM             0x20000000         0x00010000         xrw
SRAM_EXT         0x60000000         0x00400000         xrw
*default*        0x00000000         0xffffffff

Linker script and memory map

LOAD ./lib/./STM32F10x_StdPeriph_Driver/src/misc.o
LOAD ./lib/./STM32F10x_StdPeriph_Driver/src/stm32f10x_dbgmcu.o
LOAD ./lib/./STM32F10x_StdPeriph_Driver/src/stm32f10x_flash.o
LOAD ./lib/./STM32F10x_StdPeriph_Driver/src/stm32f10x_gpio.o
LOAD ./lib/./STM32F10x_StdPeriph_Driver/src/stm32f10x_rcc.o
LOAD ./lib/./STM32F10x_StdPeriph_Driver/src/stm32f10x_sdio.o
LOAD ./lib/./STM32F10x_StdPeriph_Driver/src/stm32f10x_usart.o
LOAD ./lib/./STM32F10x_StdPeriph_Driver/src/stm32f10x_i2c.o
LOAD ./lib/./STM32F10x_StdPeriph_Driver/src/stm32f10x_dma.o
LOAD ./lib/./STM32F10x_StdPeriph_Driver/src/stm32f10x_adc.o
LOAD ./lib/./STM32F10x_StdPeriph_Driver/src/stm32f10x_dac.o
LOAD ./lib/./STM32F10x_StdPeriph_Driver/src/stm32f10x_tim.o
LOAD ./lib/./STM32F10x_StdPeriph_Driver/src/stm32f10x_fsmc.o
LOAD ./lib/./STM32F10x_StdPeriph_Driver/src/stm32f10x_exti.o
LOAD ./lib/./STM32F10x_StdPeriph_Driver/src/stm32f10x_bkp.o
LOAD ./lib/./STM32F10x_StdPeriph_Driver/src/stm32f10x_pwr.o
LOAD ./lib/./uC-CPU/Cortex-M3/GCC/cpu_c.o
LOAD ./lib/./uCOS-II/Ports/ARM-Cortex-M3/Generic/GCC/os_cpu_c.o
LOAD ./lib/./uCOS-II/Ports/ARM-Cortex-M3/Generic/GCC/os_dbg.o
LOAD ./lib/./uCOS-II/Source/os_core.o
LOAD ./lib/./uCOS-II/Source/os_flag.o
LOAD ./lib/./uCOS-II/Source/os_mbox.o
LOAD ./lib/./uCOS-II/Source/os_mem.o
LOAD ./lib/./uCOS-II/Source/os_mutex.o
LOAD ./lib/./uCOS-II/Source/os_q.o
LOAD ./lib/./uCOS-II/Source/os_sem.o
LOAD ./lib/./uCOS-II/Source/os_task.o
LOAD ./lib/./uCOS-II/Source/os_time.o
LOAD ./lib/./uCOS-II/Source/os_tmr.o
LOAD ./lib/./STM32_USB-FS-Device_Driver/src/usb_core.o
LOAD ./lib/./STM32_USB-FS-Device_Driver/src/usb_init.o
LOAD ./lib/./STM32_USB-FS-Device_Driver/src/usb_int.o
LOAD ./lib/./STM32_USB-FS-Device_Driver/src/usb_mem.o
LOAD ./lib/./STM32_USB-FS-Device_Driver/src/usb_regs.o
LOAD ./lib/./STM32_USB-FS-Device_Driver/src/usb_sil.o
LOAD ./src/application/app.o
LOAD ./src/bsp/bsp.o
LOAD ./src/bsp/bsp_globals.o
LOAD ./src/bsp/bsp_utils.o
LOAD ./src/bsp/app_int.o
LOAD ./src/bsp/app_vect.o
LOAD ./src/bsp/stm32f10x_startup.o
LOAD ./src/bsp/stm32f10x_syscall.o
LOAD ./src/bsp/sdcard.o
LOAD ./src/usb/usb_desc.o
LOAD ./src/usb/usb_endp.o
LOAD ./src/usb/usb_istr.o
LOAD ./src/usb/usb_prop.o
LOAD ./src/usb/usb_pwr.o
LOAD ./src/usb/hw_config.o
LOAD ./src/sram/fsmc_sram.o
LOAD ./lib/./uC-CPU/Cortex-M3/GCC/cpu_a.o
LOAD ./lib/./uCOS-II/Ports/ARM-Cortex-M3/Generic/GCC/os_cpu_a.o
START GROUP
LOAD c:/apps/yagarto/bin/../lib/gcc/arm-elf/4.4.2/thumb/thumb2\libgcc.a
LOAD c:/apps/yagarto/bin/../lib/gcc/arm-elf/4.4.2/../../../../arm-elf/lib/thumb/thumb2\libc.a
END GROUP
                0x00004000                STACK_SIZE = 0x4000

.text           0x00000000    0x1f0b4
                0x00000000                _vectors = .
                [0x00000000]                PROVIDE (_vectors, _vectors)
 *(.isr_vector)
 .isr_vector    0x00000000      0x130 ./src/bsp/app_vect.o
                0x00000000                g_pfnVectors
                0x00000130                _evectors = .
                [0x00000130]                PROVIDE (_evectors, _evectors)
                0x00000130                _text = .
                [0x00000130]                PROVIDE (_text, _text)
 *(.text*)
 .text          0x00000130      0x1e8 ./lib/./STM32F10x_StdPeriph_Driver/src/misc.o
                0x00000158                NVIC_Init
                0x00000244                NVIC_SetVectorTable
                0x000002cc                SysTick_CLKSourceConfig
                0x00000274                NVIC_SystemLPConfig
                0x00000130                NVIC_PriorityGroupConfig
 .text          0x00000318       0x90 ./lib/./STM32F10x_StdPeriph_Driver/src/stm32f10x_dbgmcu.o
                0x00000318                DBGMCU_GetREVID
                0x00000354                DBGMCU_Config
                0x00000334                DBGMCU_GetDEVID
 .text          0x000003a8      0xb74 ./lib/./STM32F10x_StdPeriph_Driver/src/stm32f10x_flash.o
                0x00000474                FLASH_Unlock
                0x00000cbc                FLASH_GetWriteProtectionOptionByte
                0x00000a88                FLASH_ReadOutProtection
                0x00000728                FLASH_ProgramWord
                0x00000800                FLASH_ProgramHalfWord
                0x000004c8                FLASH_ErasePage
                0x000003ec                FLASH_HalfCycleAccessCmd
                0x00000da4                FLASH_GetFlagStatus
                0x00000d10                FLASH_GetPrefetchBufferStatus
                0x00000564                FLASH_EraseAllPages
                0x00000ca0                FLASH_GetUserOptionByte
                0x00000bd8                FLASH_UserOptionByteConfig
                0x00000d4c                FLASH_ITConfig
                0x000004a4                FLASH_Lock
                0x000005f0                FLASH_EraseOptionBytes
                0x00000430                FLASH_PrefetchBufferCmd
                0x00000e30                FLASH_GetStatus
                0x00000e10                FLASH_ClearFlag
                0x00000ea0                FLASH_WaitForLastOperation
                0x00000880                FLASH_ProgramOptionByteData
                0x000003a8                FLASH_SetLatency
                0x00000cd4                FLASH_GetReadOutProtectionStatus
                0x00000924                FLASH_EnableWriteProtection
 .text          0x00000f1c      0x6fc ./lib/./STM32F10x_StdPeriph_Driver/src/stm32f10x_gpio.o
                0x000013c4                GPIO_EventOutputConfig
                0x000012a8                GPIO_ReadOutputDataBit
                0x00001424                GPIO_EventOutputCmd
                0x00001444                GPIO_PinRemapConfig
                0x00001064                GPIO_Init
                0x00001044                GPIO_AFIODeInit
                0x00001364                GPIO_Write
                0x000012e4                GPIO_ReadOutputData
                0x0000128c                GPIO_ReadInputData
                0x00001300                GPIO_SetBits
                0x00001338                GPIO_WriteBit
                0x000015f8                GPIO_ETH_MediaInterfaceConfig
                0x0000131c                GPIO_ResetBits
                0x00001540                GPIO_EXTILineConfig
                0x00000f1c                GPIO_DeInit
                0x00001224                GPIO_StructInit
                0x00001380                GPIO_PinLockConfig
                0x00001250                GPIO_ReadInputDataBit
 .text          0x00001618      0x9f4 ./lib/./STM32F10x_StdPeriph_Driver/src/stm32f10x_rcc.o
                0x000017e4                RCC_HSICmd
                0x00001850                RCC_PLLCmd
                0x00001fec                RCC_ClearITPendingBit
                0x00001ed8                RCC_MCOConfig
                0x000019a0                RCC_ITConfig
                0x00001870                RCC_SYSCLKConfig
                0x00001738                RCC_WaitForHSEStartUp
                0x00001e98                RCC_BackupResetCmd
                0x00001eb8                RCC_ClockSecuritySystemCmd
                0x00001f88                RCC_ClearFlag
                0x000016b4                RCC_HSEConfig
                0x00001d48                RCC_APB2PeriphClockCmd
                0x00001804                RCC_PLLConfig
                0x00001a20                RCC_ADCCLKConfig
                0x00001a64                RCC_LSEConfig
                0x00001b0c                RCC_RTCCLKCmd
                0x00001d9c                RCC_APB1PeriphClockCmd
                0x00001fac                RCC_GetITStatus
                0x00001cf4                RCC_AHBPeriphClockCmd
                0x00001ef8                RCC_GetFlagStatus
                0x000018b4                RCC_GetSYSCLKSource
                0x00001b2c                RCC_GetClocksFreq
                0x00001ae0                RCC_RTCCLKConfig
                0x0000179c                RCC_AdjustHSICalibrationValue
                0x00001914                RCC_PCLK1Config
                0x00001a00                RCC_USBCLKConfig
                0x00001958                RCC_PCLK2Config
                0x00001618                RCC_DeInit
                0x00001e44                RCC_APB1PeriphResetCmd
                0x00001ac0                RCC_LSICmd
                0x00001df0                RCC_APB2PeriphResetCmd
                0x000018d0                RCC_HCLKConfig
 .text          0x0000200c      0x618 ./lib/./STM32F10x_StdPeriph_Driver/src/stm32f10x_sdio.o
                0x00002478                SDIO_StopSDIOReadWait
                0x000025a4                SDIO_ClearFlag
                0x000024f8                SDIO_CommandCompletionCmd
                0x00002170                SDIO_SetPowerState
                0x000021d0                SDIO_ITConfig
                0x000024b8                SDIO_SetSDIOOperation
                0x00002564                SDIO_GetFlagStatus
                0x000022f0                SDIO_GetCommandResponse
                0x000023f0                SDIO_GetDataCounter
                0x00002440                SDIO_GetFIFOCount
                0x00002150                SDIO_ClockCmd
                0x000024d8                SDIO_SendSDIOSuspendCmd
                0x00002458                SDIO_StartSDIOReadWait
                0x00002334                SDIO_DataConfig
                0x000025c4                SDIO_GetITStatus
                0x00002498                SDIO_SetSDIOReadWaitMode
                0x00002518                SDIO_CEATAITCmd
                0x00002544                SDIO_SendCEATACmd
                0x0000210c                SDIO_StructInit
                0x00002244                SDIO_SendCommand
                0x00002604                SDIO_ClearITPendingBit
                0x00002408                SDIO_ReadData
                0x00002224                SDIO_DMACmd
                0x000022b4                SDIO_CmdStructInit
                0x00002308                SDIO_GetResponse
                0x000023ac                SDIO_DataStructInit
                0x00002098                SDIO_Init
                0x000021b4                SDIO_GetPowerState
                0x00002420                SDIO_WriteData
                0x0000200c                SDIO_DeInit
 .text          0x00002624      0x968 ./lib/./STM32F10x_StdPeriph_Driver/src/stm32f10x_usart.o
                0x00002c40                USART_SetGuardTime
                0x00002cb4                USART_SmartCardCmd
                0x00002e18                USART_GetFlagStatus
                0x00002a78                USART_SetAddress
                0x00002c7c                USART_SetPrescaler
                0x00002bf8                USART_ReceiveData
                0x00002940                USART_Cmd
                0x00002dd0                USART_IrDACmd
                0x00002f48                USART_ClearITPendingBit
                0x00002e7c                USART_GetITStatus
                0x00002b48                USART_LINBreakDetectLengthConfig
                0x000026fc                USART_Init
                0x00002d44                USART_HalfDuplexCmd
                0x00002988                USART_ITConfig
                0x00002d8c                USART_IrDAConfig
                0x00002624                USART_DeInit
                0x000028a8                USART_ClockInit
                0x00002c1c                USART_SendBreak
                0x00002e58                USART_ClearFlag
                0x00002abc                USART_WakeUpConfig
                0x00002bd4                USART_SendData
                0x00002b00                USART_ReceiverWakeUpCmd
                0x00002864                USART_StructInit
                0x00002cfc                USART_SmartCardNACKCmd
                0x00002b8c                USART_LINCmd
                0x0000290c                USART_ClockStructInit
                0x00002a2c                USART_DMACmd
 .text          0x00002f8c      0xa38 ./lib/./STM32F10x_StdPeriph_Driver/src/stm32f10x_i2c.o
                0x000035e8                I2C_TransmitPEC
                0x000034d4                I2C_ReceiveData
                0x000037c4                I2C_GetLastEvent
                0x000036e8                I2C_ARPCmd
                0x00003394                I2C_OwnAddress2Config
                0x0000346c                I2C_ITConfig
                0x0000322c                I2C_DMACmd
                0x00003630                I2C_PECPositionConfig
                0x0000367c                I2C_CalculatePEC
                0x000034b8                I2C_SendData
                0x00002fdc                I2C_Init
                0x000032bc                I2C_GenerateSTART
                0x000031a0                I2C_StructInit
                0x00003880                I2C_GetFlagStatus
                0x00003274                I2C_DMALastTransferCmd
                0x0000359c                I2C_SMBusAlertConfig
                0x00002f8c                I2C_DeInit
                0x000031e4                I2C_Cmd
                0x000038fc                I2C_ClearFlag
                0x000034f0                I2C_Send7bitAddress
                0x00003778                I2C_FastModeDutyCycleConfig
                0x00003424                I2C_GeneralCallCmd
                0x00003558                I2C_SoftwareResetCmd
                0x0000392c                I2C_GetITStatus
                0x00003730                I2C_StretchClockCmd
                0x00003528                I2C_ReadRegister
                0x000036c4                I2C_GetPEC
                0x000033dc                I2C_DualAddressCmd
                0x0000334c                I2C_AcknowledgeConfig
                0x00003814                I2C_CheckEvent
                0x00003304                I2C_GenerateSTOP
                0x00003994                I2C_ClearITPendingBit
 .text          0x000039c4      0x4d8 ./lib/./STM32F10x_StdPeriph_Driver/src/stm32f10x_dma.o
                0x00003cdc                DMA_Cmd
                0x00003e04                DMA_GetITStatus
                0x00003be0                DMA_Init
                0x00003d50                DMA_GetCurrDataCounter
                0x00003e64                DMA_ClearITPendingBit
                0x00003c70                DMA_StructInit
                0x00003d6c                DMA_GetFlagStatus
                0x00003d10                DMA_ITConfig
                0x00003dcc                DMA_ClearFlag
                0x000039c4                DMA_DeInit
 .text          0x00003e9c      0xb38 ./lib/./STM32F10x_StdPeriph_Driver/src/stm32f10x_adc.o
                0x0000405c                ADC_DMACmd
                0x00004134                ADC_StartCalibration
                0x0000493c                ADC_GetITStatus
                0x000048e0                ADC_GetFlagStatus
                0x00004448                ADC_ExternalTrigConvCmd
                0x000044e4                ADC_InjectedDiscModeCmd
                0x00004028                ADC_Cmd
                0x00004858                ADC_AnalogWatchdogSingleChannelConfig
                0x000041f8                ADC_DiscModeChannelCountConfig
                0x000049a4                ADC_ClearITPendingBit
                0x000040dc                ADC_ResetCalibration
                0x000047f4                ADC_AnalogWatchdogCmd
                0x000045f0                ADC_InjectedChannelConfig
                0x00004278                ADC_RegularChannelConfig
                0x0000447c                ADC_GetConversionValue
                0x00004830                ADC_AnalogWatchdogThresholdsConfig
                0x00004154                ADC_GetCalibrationStatus
                0x0000418c                ADC_SoftwareStartConvCmd
                0x000040fc                ADC_GetResetCalibrationStatus
                0x00004518                ADC_ExternalTrigInjectedConvConfig
                0x000044b0                ADC_AutoInjectedConvCmd
                0x00004584                ADC_SoftwareStartInjectedConvCmd
                0x000041c0                ADC_GetSoftwareStartConvStatus
                0x00004498                ADC_GetDualModeConversionValue
                0x00004740                ADC_InjectedSequencerLengthConfig
                0x00003fe4                ADC_StructInit
                0x00004090                ADC_ITConfig
                0x0000491c                ADC_ClearFlag
                0x00003e9c                ADC_DeInit
                0x00004550                ADC_ExternalTrigInjectedConvCmd
                0x00003f24                ADC_Init
                0x0000478c                ADC_SetInjectedOffset
                0x00004894                ADC_TempSensorVrefintCmd
                0x000047c0                ADC_GetInjectedConversionValue
                0x00004244                ADC_DiscModeCmd
                0x000045b8                ADC_GetSoftwareStartInjectedConvCmdStatus
 .text          0x000049d4      0x3c8 ./lib/./STM32F10x_StdPeriph_Driver/src/stm32f10x_dac.o
                0x00004c24                DAC_WaveGenerationCmd
                0x00004b6c                DAC_SoftwareTriggerCmd
                0x00004bd8                DAC_DualSoftwareTriggerCmd
                0x00004cf8                DAC_SetDualChannelData
                0x000049d4                DAC_DeInit
                0x00004c88                DAC_SetChannel1Data
                0x00004cc0                DAC_SetChannel2Data
                0x00004a70                DAC_StructInit
                0x00004b08                DAC_DMACmd
                0x00004d60                DAC_GetDataOutputValue
                0x00004aa4                DAC_Cmd
                0x000049f4                DAC_Init
 .text          0x00004d9c     0x1de4 ./lib/./STM32F10x_StdPeriph_Driver/src/stm32f10x_tim.o
                0x000055d8                TIM_TimeBaseStructInit
                0x00005b70                TIM_ForcedOC2Config
                0x000065c0                TIM_SetCompare2
                0x00005c74                TIM_SelectCOM
                0x000061f4                TIM_CCxCmd
                0x000066e8                TIM_SetIC4Prescaler
                0x00005d04                TIM_CCPreloadControl
                0x00005d4c                TIM_OC1PreloadConfig
                0x0000596c                TIM_ETRClockMode2Config
                0x00006078                TIM_OC1NPolarityConfig
                0x00005b34                TIM_ForcedOC1Config
                0x00005818                TIM_DMACmd
                0x00005918                TIM_ETRClockMode1Config
                0x000066a4                TIM_SetIC3Prescaler
                0x00005fbc                TIM_ClearOC3Ref
                0x00005738                TIM_CtrlPWMOutputs
                0x000056f0                TIM_Cmd
                0x00005e04                TIM_OC4PreloadConfig
                0x00006850                TIM_ClearFlag
                0x000068d8                TIM_ClearITPendingBit
                0x000067d8                TIM_GetCounter
                0x000067a0                TIM_GetCapture3
                0x00006768                TIM_GetCapture1
                0x000051c8                TIM_OC3Init
                0x00004d9c                TIM_DeInit
                0x00006810                TIM_GetFlagStatus
                0x00005ec0                TIM_OC3FastConfig
                0x00005cbc                TIM_SelectCCDMA
                0x00006730                TIM_SetClockDivision
                0x00004f64                TIM_OC1Init
                0x00005dc8                TIM_OC3PreloadConfig
                0x00006588                TIM_SetAutoreload
                0x00005c2c                TIM_ARRPreloadConfig
                0x00006874                TIM_GetITStatus
                0x000062b4                TIM_SelectOCxM
                0x00005e44                TIM_OC1FastConfig
                0x00005d88                TIM_OC2PreloadConfig
                0x00005a60                TIM_SelectInputTrigger
                0x00005784                TIM_ITConfig
                0x00005080                TIM_OC2Init
                0x000059f4                TIM_PrescalerConfig
                0x000061b4                TIM_OC4PolarityConfig
                0x000064a0                TIM_SelectOutputTrigger
                0x000065dc                TIM_SetCompare3
                0x00005308                TIM_OC4Init
                0x00006414                TIM_SelectHallSensor
                0x00006618                TIM_SetIC1Prescaler
                0x00005bec                TIM_ForcedOC4Config
                0x00005890                TIM_ITRxExternalClockConfig
                0x00006134                TIM_OC3PolarityConfig
                0x00005864                TIM_InternalClockConfig
                0x0000603c                TIM_OC1PolarityConfig
                0x00005e80                TIM_OC2FastConfig
                0x0000656c                TIM_SetCounter
                0x000065f8                TIM_SetCompare4
                0x00006784                TIM_GetCapture2
                0x000067f4                TIM_GetPrescaler
                0x00005f78                TIM_ClearOC2Ref
                0x000053f8                TIM_ICInit
                0x00005668                TIM_ICStructInit
                0x000054b0                TIM_PWMIConfig
                0x000060f4                TIM_OC2NPolarityConfig
                0x00005f3c                TIM_ClearOC1Ref
                0x000063cc                TIM_UpdateRequestConfig
                0x00005bb0                TIM_ForcedOC3Config
                0x000058c0                TIM_TIxExternalClockConfig
                0x000056a4                TIM_BDTRStructInit
                0x00005614                TIM_OCStructInit
                0x00006174                TIM_OC3NPolarityConfig
                0x00006254                TIM_CCxNCmd
                0x00006528                TIM_SelectMasterSlaveMode
                0x000067bc                TIM_GetCapture4
                0x00004ee4                TIM_TimeBaseInit
                0x000057ec                TIM_DMAConfig
                0x000057d0                TIM_GenerateEvent
                0x0000557c                TIM_BDTRConfig
                0x0000665c                TIM_SetIC2Prescaler
                0x000059a0                TIM_ETRConfig
                0x000064e4                TIM_SelectSlaveMode
                0x00005ff8                TIM_ClearOC4Ref
                0x0000645c                TIM_SelectOnePulseMode
                0x00005a9c                TIM_EncoderInterfaceConfig
                0x000065a4                TIM_SetCompare1
                0x000060b4                TIM_OC2PolarityConfig
                0x00006384                TIM_UpdateDisableConfig
                0x00005efc                TIM_OC4FastConfig
                0x00005a1c                TIM_CounterModeConfig
 .text          0x00006b80      0xc0c ./lib/./STM32F10x_StdPeriph_Driver/src/stm32f10x_fsmc.o
                0x0000744c                FSMC_GetECC
                0x00006c68                FSMC_PCCARDDeInit
                0x0000735c                FSMC_PCCARDCmd
                0x0000726c                FSMC_NORSRAMCmd
                0x00006b80                FSMC_NORSRAMDeInit
                0x00007668                FSMC_GetITStatus
                0x000071c8                FSMC_PCCARDStructInit
                0x0000712c                FSMC_NANDStructInit
                0x000072c0                FSMC_NANDCmd
                0x00007574                FSMC_GetFlagStatus
                0x00007488                FSMC_ITConfig
                0x00007700                FSMC_ClearITPendingBit
                0x00006cb8                FSMC_NORSRAMInit
                0x00006e2c                FSMC_NANDInit
                0x000073b0                FSMC_NANDECCCmd
                0x00006f40                FSMC_PCCARDInit
                0x00006bdc                FSMC_NANDDeInit
                0x0000702c                FSMC_NORSRAMStructInit
                0x000075e8                FSMC_ClearFlag
 .text          0x0000778c      0x2dc ./lib/./STM32F10x_StdPeriph_Driver/src/stm32f10x_exti.o
                0x0000778c                EXTI_DeInit
                0x00007a48                EXTI_ClearITPendingBit
                0x0000798c                EXTI_GetFlagStatus
                0x00007960                EXTI_GenerateSWInterrupt
                0x000079cc                EXTI_ClearFlag
                0x000077e0                EXTI_Init
                0x000079ec                EXTI_GetITStatus
                0x0000792c                EXTI_StructInit
 .text          0x00007a68      0x1ec ./lib/./STM32F10x_StdPeriph_Driver/src/stm32f10x_bkp.o
                0x00007ae0                BKP_RTCOutputConfig
                0x00007b68                BKP_WriteBackupRegister
                0x00007bec                BKP_ClearFlag
                0x00007aa0                BKP_TamperPinCmd
                0x00007a68                BKP_DeInit
                0x00007c14                BKP_GetITStatus
                0x00007c2c                BKP_ClearITPendingBit
                0x00007ba0                BKP_ReadBackupRegister
                0x00007b24                BKP_SetRTCCalibrationValue
                0x00007bd4                BKP_GetFlagStatus
                0x00007a80                BKP_TamperPinLevelConfig
                0x00007ac0                BKP_ITConfig
 .text          0x00007c54      0x20c ./lib/./STM32F10x_StdPeriph_Driver/src/stm32f10x_pwr.o
                0x00007d9c                PWR_EnterSTANDBYMode
                0x00007d10                PWR_WakeUpPinCmd
                0x00007c8c                PWR_BackupAccessCmd
                0x00007d30                PWR_EnterSTOPMode
                0x00007c6c                PWR_DeInit
                0x00007df0                PWR_GetFlagStatus
                0x00007ccc                PWR_PVDLevelConfig
                0x00007e30                PWR_ClearFlag
                0x00007cac                PWR_PVDCmd
 .text          0x00007e60      0x834 ./lib/./uC-CPU/Cortex-M3/GCC/cpu_c.o
                0x00007fe8                CPU_IntSrcEn
                0x00007e60                CPU_IntSrcDis
                0x00008170                CPU_IntSrcPrioSet
                0x00008450                CPU_IntSrcPrioGet
 .text          0x00008694      0x284 ./lib/./uCOS-II/Ports/ARM-Cortex-M3/Generic/GCC/os_cpu_c.o
                0x000086b8                OSTaskCreateHook
                0x000086ec                OSTaskStatHook
                0x00008694                OSInitHookBegin
                0x000088b0                OS_CPU_SysTickInit
                0x000086cc                OSTaskDelHook
                0x0000882c                OSTimeTickHook
                0x00008818                OSTCBInitHook
                0x000086f8                OSTaskStkInit
                0x00008870                OS_CPU_SysTickHandler
                0x000086ac                OSInitHookEnd
                0x0000880c                OSTaskSwHook
                0x000086e0                OSTaskIdleHook
 .text          0x00008918        0xc ./lib/./uCOS-II/Ports/ARM-Cortex-M3/Generic/GCC/os_dbg.o
                0x00008918                OSDebugInit
 .text          0x00008924     0x178c ./lib/./uCOS-II/Source/os_core.o
                0x00008a30                OSEventPendMulti
                0x00008ea0                OSIntEnter
                0x00009e84                OS_TCBInit
                0x00009668                OS_EventTaskRemove
                0x00008924                OSEventNameGet
                0x00008ee0                OSIntExit
                0x00009b30                OS_MemCopy
                0x00009b70                OS_Sched
                0x000096d4                OS_EventTaskRemoveMulti
                0x00009538                OS_EventTaskWaitMulti
                0x00009d38                OS_TaskStat
                0x00009af8                OS_MemClr
                0x00009330                OS_EventTaskRdy
                0x00009028                OSSchedUnlock
                0x00009120                OSStatInit
                0x00009324                OS_Dummy
                0x000089a0                OSEventNameSet
                0x00009438                OS_EventTaskWait
                0x00009e14                OS_TaskStatStkChk
                0x000090b8                OSStart
                0x00009190                OSTimeTick
                0x00008fc0                OSSchedLock
                0x00009c74                OS_StrCopy
                0x00008e64                OSInit
                0x00009cc4                OS_StrLen
                0x00009314                OSVersion
                0x00009768                OS_EventWaitListInit
                0x00009cfc                OS_TaskIdle
 .text          0x0000a0b0      0xe0c ./lib/./uCOS-II/Source/os_flag.o
                0x0000a938                OSFlagPendGetFlagsRdy
                0x0000a0b0                OSFlagAccept
                0x0000ae58                OS_FlagUnlink
                0x0000acfc                OS_FlagInit
                0x0000ab6c                OSFlagQuery
                0x0000a96c                OSFlagPost
                0x0000a270                OSFlagCreate
                0x0000a320                OSFlagDel
                0x0000a59c                OSFlagPend
                0x0000a50c                OSFlagNameSet
                0x0000a48c                OSFlagNameGet
 .text          0x0000aebc      0x674 ./lib/./uCOS-II/Source/os_mbox.o
                0x0000b4a8                OSMboxQuery
                0x0000b378                OSMboxPost
                0x0000b2bc                OSMboxPendAbort
                0x0000af00                OSMboxCreate
                0x0000b10c                OSMboxPend
                0x0000aebc                OSMboxAccept
                0x0000b3f4                OSMboxPostOpt
                0x0000afa0                OSMboxDel
 .text          0x0000b530      0x388 ./lib/./uCOS-II/Source/os_mem.o
                0x0000b814                OS_MemInit
                0x0000b674                OSMemNameGet
                0x0000b60c                OSMemGet
                0x0000b750                OSMemPut
                0x0000b530                OSMemCreate
                0x0000b7b0                OSMemQuery
                0x0000b6d8                OSMemNameSet
 .text          0x0000b8b8      0xb1c ./lib/./uCOS-II/Source/os_mutex.o
                0x0000b8b8                OSMutexAccept
                0x0000bc98                OSMutexPend
                0x0000bab4                OSMutexDel
                0x0000b9a4                OSMutexCreate
                0x0000c1d8                OSMutexQuery
                0x0000c094                OSMutexPost
 .text          0x0000c3d4      0xa08 ./lib/./uCOS-II/Source/os_q.o
                0x0000c748                OSQFlush
                0x0000c3d4                OSQAccept
                0x0000ca28                OSQPost
                0x0000c790                OSQPend
                0x0000cadc                OSQPostFront
                0x0000c46c                OSQCreate
                0x0000cb94                OSQPostOpt
                0x0000c59c                OSQDel
                0x0000c96c                OSQPendAbort
                0x0000cd64                OS_QInit
                0x0000ccb0                OSQQuery
 .text          0x0000cddc      0x610 ./lib/./uCOS-II/Source/os_sem.o
                0x0000d03c                OSSemPend
                0x0000cddc                OSSemAccept
                0x0000d1b4                OSSemPendAbort
                0x0000d270                OSSemPost
                0x0000ce2c                OSSemCreate
                0x0000d2f8                OSSemQuery
                0x0000d380                OSSemSet
                0x0000ced0                OSSemDel
 .text          0x0000d3ec      0xd8c ./lib/./uCOS-II/Source/os_task.o
                0x0000d7d8                OSTaskCreateExt
                0x0000d6e8                OSTaskCreate
                0x0000d3ec                OSTaskChangePrio
                0x0000d8d4                OSTaskDel
                0x0000dca4                OSTaskNameSet
                0x0000db44                OSTaskDelReq
                0x0000dd70                OSTaskResume
                0x0000dbe4                OSTaskNameGet
                0x0000de84                OSTaskStkChk
                0x0000e0a0                OSTaskQuery
                0x0000e128                OS_TaskStkClr
                0x0000df74                OSTaskSuspend
 .text          0x0000e178      0x31c ./lib/./uCOS-II/Source/os_time.o
                0x0000e464                OSTimeSet
                0x0000e178                OSTimeDly
                0x0000e250                OSTimeDlyHMSM
                0x0000e308                OSTimeDlyResume
                0x0000e430                OSTimeGet
 .text          0x0000e494      0xb60 ./lib/./uCOS-II/Source/os_tmr.o
                0x0000ea40                OSTmrSignal
                0x0000e570                OSTmrDel
                0x0000e6d8                OSTmrRemainGet
                0x0000e7e0                OSTmrStateGet
                0x0000eba0                OSTmr_Init
                0x0000e854                OSTmrStart
                0x0000e920                OSTmrStop
                0x0000e494                OSTmrCreate
                0x0000e634                OSTmrNameGet
 .text          0x0000eff4     0x1494 ./lib/./STM32_USB-FS-Device_Driver/src/usb_core.o
                0x0000f5d4                Standard_SetEndPointFeature
                0x0000f72c                Standard_SetDeviceFeature
                0x0000f390                Standard_ClearFeature
                0x00010120                Setup0_Process
                0x0000f040                Standard_SetConfiguration
                0x0000f1cc                Standard_GetStatus
                0x0001047c                NOP_Process
                0x0000f100                Standard_SetInterface
                0x0000eff4                Standard_GetConfiguration
                0x000103e8                SetDeviceAddress
                0x00010240                In0_Process
                0x0000f0b4                Standard_GetInterface
                0x0000f768                Standard_GetDescriptorData
                0x000102fc                Out0_Process
                0x00010388                Post0_Process
 .text          0x00010488       0x5c ./lib/./STM32_USB-FS-Device_Driver/src/usb_init.o
                0x00010488                USB_Init
 .text          0x000104e4      0x5ac ./lib/./STM32_USB-FS-Device_Driver/src/usb_int.o
                0x000104e4                CTR_LP
                0x00010938                CTR_HP
 .text          0x00010a90       0xf8 ./lib/./STM32_USB-FS-Device_Driver/src/usb_mem.o
                0x00010b1c                PMAToUserBufferCopy
                0x00010a90                UserToPMABufferCopy
 .text          0x00010b88     0x12f0 ./lib/./STM32_USB-FS-Device_Driver/src/usb_regs.o
                0x00010f64                SetEPRxValid
                0x00011754                GetEPRxCount
                0x00010bc0                SetISTR
                0x00011e40                ByteSwap
                0x00010be0                GetISTR
                0x00011178                ClearEPDoubleBuff
                0x00011548                GetEPTxAddr
                0x00011604                SetEPCountRxReg
                0x000115c4                SetEPTxCount
                0x00010b88                SetCNTR
                0x00010d60                SetEPTxStatus
                0x00011ca4                GetEPDblBuf1Count
                0x000112c8                ToggleDTOG_RX
                0x00010e50                SetDouBleBuffEPStall
                0x00011e10                ToWord
                0x0001179c                SetEPDblBuffAddr
                0x000118ec                GetEPDblBuf1Addr
                0x0001192c                SetEPDblBuffCount
                0x00010c30                GetDADDR
                0x00011284                ClearEP_CTR_TX
                0x00011018                ClearEP_KIND
                0x00011430                SetEPAddress
                0x000118b0                GetEPDblBuf0Addr
                0x00011b88                SetEPDblBuf1Count
                0x00011864                SetEPDblBuf1Addr
                0x00011360                ClearDTOG_RX
                0x00010ba8                GetCNTR
                0x00011674                SetEPRxCount
                0x00010c10                SetDADDR
                0x00010eac                GetEPTxStatus
                0x00010c48                SetBTABLE
                0x00010bf8                GetFNR
                0x0001181c                SetEPDblBuf0Addr
                0x00011240                ClearEP_CTR_RX
                0x0001170c                GetEPTxCount
                0x00011c5c                GetEPDblBuf0Count
                0x000114fc                SetEPRxAddr
                0x00011488                GetEPAddress
                0x00011208                GetRxStallStatus
                0x00010c8c                SetENDPOINT
                0x00010ce0                SetEPType
                0x00010ed8                GetEPRxStatus
                0x00010fc4                SetEP_KIND
                0x00010d34                GetEPType
                0x00010c74                GetBTABLE
                0x00011314                ToggleDTOG_TX
                0x00010cb8                GetENDPOINT
                0x000110d0                Set_Status_Out
                0x00010f04                SetEPTxValid
                0x00011cec                GetEPDblBufDir
                0x00010dd8                SetEPRxStatus
                0x00011ab4                SetEPDblBuf0Count
                0x00011d78                FreeUserBuffer
                0x000113c8                ClearDTOG_TX
                0x000114b4                SetEPTxAddr
                0x00011074                Clear_Status_Out
                0x00011124                SetEPDoubleBuff
                0x00011584                GetEPRxAddr
                0x000111d4                GetTxStallStatus
 .text          0x00011e78       0xd8 ./lib/./STM32_USB-FS-Device_Driver/src/usb_sil.o
                0x00011f04                USB_SIL_Read
                0x00011e78                USB_SIL_Init
                0x00011eb8                USB_SIL_Write
 .text          0x00011f50      0x414 ./src/application/app.o
                0x000122d4                main
 .text          0x00012364     0x1004 ./src/bsp/bsp.o
                0x00012cb8                BSP_LEDOn
                0x00013328                Tmr_TickISR_Handler
                0x00013080                BSP_TEST_SDIO
                0x00012ce4                BSP_LEDOff
                0x000132e0                BSP_GET_ADCe1
                0x00012c84                BSP_CPU_ClkFreq
                0x00012dd8                BSP_SWValues
                0x00012ca0                BSP_IntDisAll
                0x00013278                BSP_ADC_POT
                0x00012d28                BSP_SDCARD_DISABLE
                0x00012da4                BSP_SWValue
                0x00012dfc                BSP_I2C_LEDS
                0x00012d40                BSP_LEDToggle
                0x00012d10                BSP_SDCARD_ENABLE
                0x00012cac                BSP_IntEnAll
                0x00013268                BSP_TEST_SRAM
                0x0001237c                SystemInit
                0x00012d7c                BSP_LEDSet
                0x000132c0                BSP_SET_DAC2
                0x00012f00                BSP_I2C_JOY
                0x00012c5c                BSP_Init
 .text          0x00013368        0x0 ./src/bsp/bsp_globals.o
 .text          0x00013368      0x19c ./src/bsp/bsp_utils.o
                0x0001345c                Fill_Buffer16
                0x000134a8                Buffercmp16
                0x000133b0                eBuffercmp
                0x00013368                Fill_Buffer
                0x00013400                Buffercmp
 .text          0x00013504      0x2c8 ./src/bsp/app_int.o
                0x0001358c                EXTI2_IRQHandler
                0x00013514                MemManageException
                0x00013750                TIM8_TRG_COM_IRQHandler
                0x00013758                TIM8_CC_IRQHandler
                0x0001351c                BusFaultException
                0x00013628                TIM1_CC_IRQHandler
                0x0001379c                TIM6_IRQHandler
                0x00013554                PVD_IRQHandler
                0x00013770                SDIO_IRQHandler
                0x00013594                EXTI3_IRQHandler
                0x000135d4                DMAChannel7_IRQHandler
                0x0001352c                DebugMonitor
                0x00013534                SVCHandler
                0x0001350c                HardFaultException
                0x000135e4                USB_HP_CAN_TX_IRQHandler
                0x0001357c                EXTI0_IRQHandler
                0x00013658                I2C2_EV_IRQHandler
                0x000135a4                DMAChannel1_IRQHandler
                0x000135dc                ADC1_2_IRQHandler
                0x00013668                SPI1_IRQHandler
                0x00013794                USART5_IRQHandler
                0x00013600                CAN_SCE_IRQHandler
                0x0001355c                TAMPER_IRQHandler
                0x00013748                TIM8_UP_IRQHandler
                0x00013504                NMIException
                0x000135bc                DMAChannel4_IRQHandler
                0x000136d4                USART3_IRQHandler
                0x00013564                RTC_IRQHandler
                0x00013544                SysTickHandler
                0x00013760                ADC3_IRQHandler
                0x00013640                TIM4_IRQHandler
                0x000135f8                CAN_RX1_IRQHandler
                0x00013648                I2C1_EV_IRQHandler
                0x0001378c                USART4_IRQHandler
                0x00013638                TIM3_IRQHandler
                0x00013574                RCC_IRQHandler
                0x00013620                TIM1_TRG_COM_IRQHandler
                0x000136fc                EXTI15_10_IRQHandler
                0x000135c4                DMAChannel5_IRQHandler
                0x000137a4                TIM7_IRQHandler
                0x0001377c                TIM5_IRQHandler
                0x000137ac                DMA2Channel1_IRQHandler
                0x00013608                EXTI9_5_IRQHandler
                0x000135ac                DMAChannel2_IRQHandler
                0x00013670                SPI2_IRQHandler
                0x000135ec                USB_LP_CAN_RX0_IRQHandler
                0x0001359c                EXTI4_IRQHandler
                0x000137c4                DMA2Channel4_5_IRQHandler
                0x00013768                FSMC_IRQHandler
                0x00013618                TIM1_UP_IRQHandler
                0x0001354c                WWDG_IRQHandler
                0x000137bc                DMA2Channel3_IRQHandler
                0x00013630                TIM2_IRQHandler
                0x00013610                TIM1_BRK_IRQHandler
                0x00013584                EXTI1_IRQHandler
                0x00013730                RTCAlarm_IRQHandler
                0x000136cc                USART2_IRQHandler
                0x00013660                I2C2_ER_IRQHandler
                0x00013740                TIM8_BRK_IRQHandler
                0x00013524                UsageFaultException
                0x0001356c                FLASH_IRQHandler
                0x000135cc                DMAChannel6_IRQHandler
                0x000135b4                DMAChannel3_IRQHandler
                0x00013678                USART1_IRQHandler
                0x00013784                SPI3_IRQHandler
                0x00013650                I2C1_ER_IRQHandler
                0x0001353c                PendSVCHandler
                0x000137b4                DMA2Channel2_IRQHandler
                0x00013738                USBWakeUp_IRQHandler
 .text          0x000137cc        0x0 ./src/bsp/app_vect.o
 .text          0x000137cc       0xd0 ./src/bsp/stm32f10x_startup.o
                0x000137cc                Reset_Handler
 .text          0x0001389c      0x368 ./src/bsp/stm32f10x_syscall.o
                0x0001395c                _USART1_read
                0x000138ac                _DUMMIE_close
                0x00013b50                _fstat
                0x00013b38                _isatty
                0x000138f4                _USART1_close
                0x00013b74                _open
                0x00013aa4                _sbrk
                0x00013a88                _lseek
                0x00013900                _USART1_write
                0x000139f0                _USART3_read
                0x000138c8                _DUMMIE_read
                0x000138d8                _USART1_open
                0x00013994                _USART3_write
                0x00013a00                _write
                0x0001396c                _USART3_open
                0x000138b8                _DUMMIE_write
                0x00013a30                _read
                0x00013b2c                _exit
                0x00013988                _USART3_close
                0x0001389c                _DUMMIE_open
                0x00013a60                _close
 .text          0x00013c04     0x40a4 ./src/bsp/sdcard.o
                0x000166f8                SD_SendSDStatus
                0x0001556c                SD_WriteBlock
                0x000142cc                SD_GetCardInfo
                0x000149b0                SD_EnableWideBusOperation
                0x00014038                SD_PowerOFF
                0x0001635c                SD_GetTransferState
                0x00014b14                SD_SetDeviceMode
                0x00015bd4                SD_WriteMultiBlocks
                0x00016a64                SD_ProcessIRQSrc
                0x000163fc                SD_Erase
                0x00013c04                SD_Init
                0x00014b58                SD_SelectDeselect
                0x0001664c                SD_SendStatus
                0x00014bd0                SD_ReadBlock
                0x00016384                SD_StopTransfer
                0x00013cc0                SD_PowerON
                0x0001501c                SD_ReadMultiBlocks
                0x00014058                SD_InitializeCards
 .text          0x00017ca8        0x0 ./src/usb/usb_desc.o
 .text          0x00017ca8       0xd4 ./src/usb/usb_endp.o
                0x00017cd8                EP4_IN_Callback
                0x00017d58                EP5_OUT_Callback
                0x00017d08                EP1_OUT_Callback
                0x00017d20                EP3_OUT_Callback
                0x00017cc0                EP2_IN_Callback
                0x00017cf0                EP6_IN_Callback
                0x00017ce4                EP5_IN_Callback
                0x00017d4c                EP4_OUT_Callback
                0x00017d64                EP6_OUT_Callback
                0x00017cfc                EP7_IN_Callback
                0x00017ca8                EP1_IN_Callback
                0x00017d14                EP2_OUT_Callback
                0x00017ccc                EP3_IN_Callback
                0x00017d70                EP7_OUT_Callback
 .text          0x00017d7c       0xcc ./src/usb/usb_istr.o
                0x00017d7c                USB_Istr
 .text          0x00017e48      0x440 ./src/usb/usb_prop.o
                0x000181d8                Virtual_Com_Port_Get_Interface_Setting
                0x00017e48                Virtual_Com_Port_init
                0x0001824c                Virtual_Com_Port_SetLineCoding
                0x00018014                Virtual_Com_Port_Status_In
                0x000180f4                Virtual_Com_Port_NoData_Setup
                0x00017fcc                Virtual_Com_Port_SetConfiguration
                0x00018210                Virtual_Com_Port_GetLineCoding
                0x00017ffc                Virtual_Com_Port_SetDeviceAddress
                0x00018048                Virtual_Com_Port_Data_Setup
                0x0001818c                Virtual_Com_Port_GetStringDescriptor
                0x00018164                Virtual_Com_Port_GetConfigDescriptor
                0x0001803c                Virtual_Com_Port_Status_Out
                0x0001813c                Virtual_Com_Port_GetDeviceDescriptor
                0x00017e7c                Virtual_Com_Port_Reset
 .text          0x00018288      0x2d8 ./src/usb/usb_pwr.o
                0x00018288                PowerOn
                0x00018348                Suspend
                0x0001839c                Resume_Init
                0x00018308                PowerOff
                0x000183dc                Resume
 .text          0x00018560      0x37c ./src/usb/hw_config.o
                0x00018610                Enter_LowPowerMode
                0x00018668                USB_Interrupts_Config
                0x000186b4                USB_To_USART_Send_Data
                0x000185f4                Set_USBClock
                0x0001870c                USART_To_USB_Send_Data
                0x00018628                Leave_LowPowerMode
                0x00018560                Set_System
                0x000187bc                Get_SerialNum
                0x000187a8                USB_Cable_Config
 .text          0x000188dc      0x31c ./src/sram/fsmc_sram.o
                0x00018ad0                FSMC_SRAM_test
                0x00018a8c                FSMC_SRAM_ReadBuffer
                0x00018a48                FSMC_SRAM_WriteBuffer
                0x000188dc                FSMC_SRAM_Init
 .text          0x00018bf8       0x22 ./lib/./uC-CPU/Cortex-M3/GCC/cpu_a.o
                0x00018c0e                CPU_CntLeadZeros
                0x00018bfc                CPU_IntEn
                0x00018c08                CPU_SR_Restore
                0x00018c14                CPU_RevBits
                0x00018bf8                CPU_IntDis
                0x00018c00                CPU_SR_Save
 *fill*         0x00018c1a       0xe6 00
 .text          0x00018d00      0x100 ./lib/./uCOS-II/Ports/ARM-Cortex-M3/Generic/GCC/os_cpu_a.o
                0x00018d0e                OSStartHighRdy
                0x00018d2a                OSCtxSw
                0x00018d3a                OS_CPU_PendSVHandler
                0x00018d32                OSIntCtxSw
                0x00018d08                OS_CPU_SR_Restore
                0x00018d00                OS_CPU_SR_Save
 .text          0x00018e00       0xa0 c:/apps/yagarto/bin/../lib/gcc/arm-elf/4.4.2/../../../../arm-elf/lib/thumb/thumb2\libc.a(lib_a-fopen.o)
                0x00018e88                fopen
                0x00018e00                _fopen_r
 .text          0x00018ea0       0x44 c:/apps/yagarto/bin/../lib/gcc/arm-elf/4.4.2/../../../../arm-elf/lib/thumb/thumb2\libc.a(lib_a-fprintf.o)
                0x00018ea0                fprintf
                0x00018ec8                _fprintf_r
 .text          0x00018ee4      0x334 c:/apps/yagarto/bin/../lib/gcc/arm-elf/4.4.2/../../../../arm-elf/lib/thumb/thumb2\libc.a(lib_a-fseek.o)
                0x000191fc                fseek
                0x00018ee4                _fseek_r
 .text          0x00019218       0x28 c:/apps/yagarto/bin/../lib/gcc/arm-elf/4.4.2/../../../../arm-elf/lib/thumb/thumb2\libc.a(lib_a-fstatr.o)
                0x00019218                _fstat_r
 .text          0x00019240       0xc4 c:/apps/yagarto/bin/../lib/gcc/arm-elf/4.4.2/../../../../arm-elf/lib/thumb/thumb2\libc.a(lib_a-fwrite.o)
                0x00019240                _fwrite_r
                0x000192e0                fwrite
 .text          0x00019304        0x0 c:/apps/yagarto/bin/../lib/gcc/arm-elf/4.4.2/../../../../arm-elf/lib/thumb/thumb2\libc.a(lib_a-impure.o)
 .text          0x00019304       0xd8 c:/apps/yagarto/bin/../lib/gcc/arm-elf/4.4.2/../../../../arm-elf/lib/thumb/thumb2\libc.a(lib_a-makebuf.o)
                0x00019304                __smakebuf_r
 .text          0x000193dc      0x588 c:/apps/yagarto/bin/../lib/gcc/arm-elf/4.4.2/../../../../arm-elf/lib/thumb/thumb2\libc.a(lib_a-mallocr.o)
                0x000193dc                _malloc_r
 .text          0x00019964       0xa8 c:/apps/yagarto/bin/../lib/gcc/arm-elf/4.4.2/../../../../arm-elf/lib/thumb/thumb2\libc.a(lib_a-memset.o)
                0x00019964                memset
 .text          0x00019a0c        0x8 c:/apps/yagarto/bin/../lib/gcc/arm-elf/4.4.2/../../../../arm-elf/lib/thumb/thumb2\libc.a(lib_a-mlock.o)
                0x00019a10                __malloc_unlock
                0x00019a0c                __malloc_lock
 .text          0x00019a14       0x2c c:/apps/yagarto/bin/../lib/gcc/arm-elf/4.4.2/../../../../arm-elf/lib/thumb/thumb2\libc.a(lib_a-openr.o)
                0x00019a14                _open_r
 .text          0x00019a40       0xf0 c:/apps/yagarto/bin/../lib/gcc/arm-elf/4.4.2/../../../../arm-elf/lib/thumb/thumb2\libc.a(lib_a-rand.o)
                0x00019a40                rand
                0x00019ad8                srand
 .text          0x00019b30      0x104 c:/apps/yagarto/bin/../lib/gcc/arm-elf/4.4.2/../../../../arm-elf/lib/thumb/thumb2\libc.a(lib_a-reent.o)
                0x00019b68                cleanup_glue
                0x00019b80                _reclaim_reent
                0x00019b30                _wrapup_reent
 .text          0x00019c34      0x158 c:/apps/yagarto/bin/../lib/gcc/arm-elf/4.4.2/../../../../arm-elf/lib/thumb/thumb2\libc.a(lib_a-refill.o)
                0x00019c34                __srefill_r
 .text          0x00019d8c       0x28 c:/apps/yagarto/bin/../lib/gcc/arm-elf/4.4.2/../../../../arm-elf/lib/thumb/thumb2\libc.a(lib_a-sbrkr.o)
                0x00019d8c                _sbrk_r
 .text          0x00019db4       0x90 c:/apps/yagarto/bin/../lib/gcc/arm-elf/4.4.2/../../../../arm-elf/lib/thumb/thumb2\libc.a(lib_a-stdio.o)
                0x00019dc0                __sseek
                0x00019e20                __sread
                0x00019db4                __sclose
                0x00019de8                __swrite
 .text          0x00019e44       0x54 c:/apps/yagarto/bin/../lib/gcc/arm-elf/4.4.2/../../../../arm-elf/lib/thumb/thumb2\libc.a(lib_a-strcmp.o)
                0x00019e44                strcmp
 .text          0x00019e98     0x171c c:/apps/yagarto/bin/../lib/gcc/arm-elf/4.4.2/../../../../arm-elf/lib/thumb/thumb2\libc.a(lib_a-vfprintf.o)
                0x00019eb4                _vfprintf_r
                0x0001b598                vfprintf
 .text          0x0001b5b4       0x2c c:/apps/yagarto/bin/../lib/gcc/arm-elf/4.4.2/../../../../arm-elf/lib/thumb/thumb2\libc.a(lib_a-writer.o)
                0x0001b5b4                _write_r
 .text          0x0001b5e0       0xfc c:/apps/yagarto/bin/../lib/gcc/arm-elf/4.4.2/../../../../arm-elf/lib/thumb/thumb2\libc.a(lib_a-wsetup.o)
                0x0001b5e0                __swsetup_r
 .text          0x0001b6dc       0x28 c:/apps/yagarto/bin/../lib/gcc/arm-elf/4.4.2/../../../../arm-elf/lib/thumb/thumb2\libc.a(lib_a-closer.o)
                0x0001b6dc                _close_r
 .text          0x0001b704      0xff4 c:/apps/yagarto/bin/../lib/gcc/arm-elf/4.4.2/../../../../arm-elf/lib/thumb/thumb2\libc.a(lib_a-dtoa.o)
                0x0001b824                _dtoa_r
 .text          0x0001c6f8      0x170 c:/apps/yagarto/bin/../lib/gcc/arm-elf/4.4.2/../../../../arm-elf/lib/thumb/thumb2\libc.a(lib_a-fflush.o)
                0x0001c840                fflush
                0x0001c6f8                _fflush_r
 .text          0x0001c868      0x1d8 c:/apps/yagarto/bin/../lib/gcc/arm-elf/4.4.2/../../../../arm-elf/lib/thumb/thumb2\libc.a(lib_a-findfp.o)
                0x0001c9e4                __sinit
                0x0001c92c                __sfmoreglue
                0x0001c8c8                _cleanup
                0x0001c8b8                _cleanup_r
                0x0001c89c                __fp_lock_all
                0x0001c868                __sfp_lock_acquire
                0x0001c958                __sfp
                0x0001c874                __sinit_lock_release
                0x0001c880                __fp_unlock_all
                0x0001c86c                __sfp_lock_release
                0x0001c870                __sinit_lock_acquire
 .text          0x0001ca40       0x78 c:/apps/yagarto/bin/../lib/gcc/arm-elf/4.4.2/../../../../arm-elf/lib/thumb/thumb2\libc.a(lib_a-flags.o)
                0x0001ca40                __sflags
 .text          0x0001cab8      0x258 c:/apps/yagarto/bin/../lib/gcc/arm-elf/4.4.2/../../../../arm-elf/lib/thumb/thumb2\libc.a(lib_a-freer.o)
                0x0001cb54                _free_r
                0x0001cab8                _malloc_trim_r
 .text          0x0001cd10      0x320 c:/apps/yagarto/bin/../lib/gcc/arm-elf/4.4.2/../../../../arm-elf/lib/thumb/thumb2\libc.a(lib_a-fvwrite.o)
                0x0001cd10                __sfvwrite_r
 .text          0x0001d030       0xa4 c:/apps/yagarto/bin/../lib/gcc/arm-elf/4.4.2/../../../../arm-elf/lib/thumb/thumb2\libc.a(lib_a-fwalk.o)
                0x0001d084                _fwalk
                0x0001d030                _fwalk_reent
 .text          0x0001d0d4       0x28 c:/apps/yagarto/bin/../lib/gcc/arm-elf/4.4.2/../../../../arm-elf/lib/thumb/thumb2\libc.a(lib_a-isattyr.o)
                0x0001d0d4                _isatty_r
 .text          0x0001d0fc       0x68 c:/apps/yagarto/bin/../lib/gcc/arm-elf/4.4.2/../../../../arm-elf/lib/thumb/thumb2\libc.a(lib_a-locale.o)
                0x0001d118                _setlocale_r
                0x0001d0fc                __locale_charset
                0x0001d108                _localeconv_r
                0x0001d14c                setlocale
                0x0001d110                localeconv
 .text          0x0001d164       0x2c c:/apps/yagarto/bin/../lib/gcc/arm-elf/4.4.2/../../../../arm-elf/lib/thumb/thumb2\libc.a(lib_a-lseekr.o)
                0x0001d164                _lseek_r
 .text          0x0001d190       0x28 c:/apps/yagarto/bin/../lib/gcc/arm-elf/4.4.2/../../../../arm-elf/lib/thumb/thumb2\libc.a(lib_a-malloc.o)
                0x0001d1a4                malloc
                0x0001d190                free
 .text          0x0001d1b8       0x64 c:/apps/yagarto/bin/../lib/gcc/arm-elf/4.4.2/../../../../arm-elf/lib/thumb/thumb2\libc.a(lib_a-memchr.o)
                0x0001d1b8                memchr
 .text          0x0001d21c       0x90 c:/apps/yagarto/bin/../lib/gcc/arm-elf/4.4.2/../../../../arm-elf/lib/thumb/thumb2\libc.a(lib_a-memcpy.o)
                0x0001d21c                memcpy
 .text          0x0001d2ac       0xb4 c:/apps/yagarto/bin/../lib/gcc/arm-elf/4.4.2/../../../../arm-elf/lib/thumb/thumb2\libc.a(lib_a-memmove.o)
                0x0001d2ac                memmove
 .text          0x0001d360      0x944 c:/apps/yagarto/bin/../lib/gcc/arm-elf/4.4.2/../../../../arm-elf/lib/thumb/thumb2\libc.a(lib_a-mprec.o)
                0x0001d580                _mprec_log10
                0x0001d608                __any_on
                0x0001d694                _Balloc
                0x0001d520                __ratio
                0x0001dabc                __i2b
                0x0001d484                __b2d
                0x0001dc08                __s2b
                0x0001d404                __mcmp
                0x0001d360                __hi0bits
                0x0001db5c                __pow5mult
                0x0001d8b8                __lshift
                0x0001d978                __multiply
                0x0001d700                __d2b
                0x0001d5b8                __copybits
                0x0001d440                __ulp
                0x0001d7c8                __mdiff
                0x0001d3a0                __lo0bits
                0x0001dad0                __multadd
                0x0001d65c                _Bfree
 .text          0x0001dca4       0x2c c:/apps/yagarto/bin/../lib/gcc/arm-elf/4.4.2/../../../../arm-elf/lib/thumb/thumb2\libc.a(lib_a-readr.o)
                0x0001dca4                _read_r
 .text          0x0001dcd0      0x390 c:/apps/yagarto/bin/../lib/gcc/arm-elf/4.4.2/../../../../arm-elf/lib/thumb/thumb2\libc.a(lib_a-reallocr.o)
                0x0001dcd0                _realloc_r
 .text          0x0001e060       0x20 c:/apps/yagarto/bin/../lib/gcc/arm-elf/4.4.2/../../../../arm-elf/lib/thumb/thumb2\libc.a(lib_a-s_isinfd.o)
                0x0001e060                __isinfd
 .text          0x0001e080       0x18 c:/apps/yagarto/bin/../lib/gcc/arm-elf/4.4.2/../../../../arm-elf/lib/thumb/thumb2\libc.a(lib_a-s_isnand.o)
                0x0001e080                __isnand
 .text          0x0001e098       0x54 c:/apps/yagarto/bin/../lib/gcc/arm-elf/4.4.2/../../../../arm-elf/lib/thumb/thumb2\libc.a(lib_a-strlen.o)
                0x0001e098                strlen
 .text          0x0001e0ec       0x5c c:/apps/yagarto/bin/../lib/gcc/arm-elf/4.4.2/../../../../arm-elf/lib/thumb/thumb2\libc.a(lib_a-callocr.o)
                0x0001e0ec                _calloc_r
 .text          0x0001e148       0xc8 c:/apps/yagarto/bin/../lib/gcc/arm-elf/4.4.2/../../../../arm-elf/lib/thumb/thumb2\libc.a(lib_a-fclose.o)
                0x0001e148                _fclose_r
                0x0001e1fc                fclose
 .text          0x0001e210       0x88 c:/apps/yagarto/bin/../lib/gcc/arm-elf/4.4.2/thumb/thumb2\libgcc.a(_udivsi3.o)
                0x0001e210                __udivsi3
                0x0001e210                __aeabi_uidiv
                0x0001e288                __aeabi_uidivmod
 .text          0x0001e298        0x4 c:/apps/yagarto/bin/../lib/gcc/arm-elf/4.4.2/thumb/thumb2\libgcc.a(_dvmd_tls.o)
                0x0001e298                __aeabi_ldiv0
                0x0001e298                __div0
                0x0001e298                __aeabi_idiv0
 .text          0x0001e29c      0x374 c:/apps/yagarto/bin/../lib/gcc/arm-elf/4.4.2/thumb/thumb2\libgcc.a(_arm_addsubdf3.o)
                0x0001e5b0                __floatdidf
                0x0001e540                __floatsidf
                0x0001e520                __aeabi_ui2d
                0x0001e29c                __aeabi_drsub
                0x0001e564                __extendsfdf2
                0x0001e2a8                __adddf3
                0x0001e520                __floatunsidf
                0x0001e2a8                __aeabi_dadd
                0x0001e5a0                __aeabi_ul2d
                0x0001e2a4                __aeabi_dsub
                0x0001e5a0                __floatundidf
                0x0001e540                __aeabi_i2d
                0x0001e5b0                __aeabi_l2d
                0x0001e564                __aeabi_f2d
                0x0001e2a4                __subdf3
 .text          0x0001e610      0x424 c:/apps/yagarto/bin/../lib/gcc/arm-elf/4.4.2/thumb/thumb2\libgcc.a(_arm_muldivdf3.o)
                0x0001e864                __aeabi_ddiv
                0x0001e610                __aeabi_dmul
                0x0001e864                __divdf3
                0x0001e610                __muldf3
 .text          0x0001ea34      0x10c c:/apps/yagarto/bin/../lib/gcc/arm-elf/4.4.2/thumb/thumb2\libgcc.a(_arm_cmpdf2.o)
                0x0001eb04                __aeabi_dcmple
                0x0001ea44                __cmpdf2
                0x0001ea44                __eqdf2
                0x0001ea34                __gtdf2
                0x0001eacc                __aeabi_cdcmple
                0x0001eabc                __aeabi_cdrcmple
                0x0001ea3c                __ltdf2
                0x0001eaf0                __aeabi_dcmplt
                0x0001ea3c                __ledf2
                0x0001eb2c                __aeabi_dcmpgt
                0x0001eb18                __aeabi_dcmpge
                0x0001ea44                __nedf2
                0x0001eadc                __aeabi_dcmpeq
                0x0001eacc                __aeabi_cdcmpeq
                0x0001ea34                __gedf2
 .text          0x0001eb40       0x50 c:/apps/yagarto/bin/../lib/gcc/arm-elf/4.4.2/thumb/thumb2\libgcc.a(_arm_fixdfsi.o)
                0x0001eb40                __fixdfsi
                0x0001eb40                __aeabi_d2iz
 *(.rodata*)
 .rodata        0x0001eb90      0x120 ./lib/./uCOS-II/Source/os_core.o
                0x0001eb90                OSUnMapTbl
 .rodata        0x0001ecb0       0x28 ./lib/./uCOS-II/Source/os_tmr.o
 .rodata        0x0001ecd8       0x50 ./src/application/app.o
 .rodata        0x0001ed28       0x3c ./src/bsp/bsp.o
                0x0001ed34                SystemFrequency_APB1Clk
                0x0001ed3c                D_LED_PIN
                0x0001ed38                SystemFrequency_APB2Clk
                0x0001ed54                SWITCH_PIN
                0x0001ed30                SystemFrequency_AHBClk
                0x0001ed4c                D_LED_CLK
                0x0001ed28                SystemFrequency
                0x0001ed2c                SystemFrequency_SysClk
                0x0001ed50                SWITCH_CLK
 .rodata        0x0001ed64       0x54 ./src/bsp/stm32f10x_syscall.o
                0x0001eda4                device_operation_table_USART3
                0x0001ed88                device_operation_table_USART1
                0x0001ed6c                device_operation_table_DUMMIE
 .rodata        0x0001edb8       0xb8 ./src/usb/usb_desc.o
                0x0001ee3c                Virtual_Com_Port_StringProduct
                0x0001edb8                Virtual_Com_Port_DeviceDescriptor
                0x0001ee10                Virtual_Com_Port_StringLangID
                0x0001ee14                Virtual_Com_Port_StringVendor
                0x0001edcc                Virtual_Com_Port_ConfigDescriptor
 .rodata        0x0001ee70        0x4 c:/apps/yagarto/bin/../lib/gcc/arm-elf/4.4.2/../../../../arm-elf/lib/thumb/thumb2\libc.a(lib_a-impure.o)
                0x0001ee70                _global_impure_ptr
 .rodata.str1.4
                0x0001ee74        0x2 c:/apps/yagarto/bin/../lib/gcc/arm-elf/4.4.2/../../../../arm-elf/lib/thumb/thumb2\libc.a(lib_a-impure.o)
                                  0x4 (size before relaxing)
 *fill*         0x0001ee76        0x2 00
 .rodata        0x0001ee78       0x20 c:/apps/yagarto/bin/../lib/gcc/arm-elf/4.4.2/../../../../arm-elf/lib/thumb/thumb2\libc.a(lib_a-vfprintf.o)
 .rodata.str1.4
                0x0001ee98       0x42 c:/apps/yagarto/bin/../lib/gcc/arm-elf/4.4.2/../../../../arm-elf/lib/thumb/thumb2\libc.a(lib_a-vfprintf.o)
                                 0x44 (size before relaxing)
 *fill*         0x0001eeda        0x2 00
 .rodata.str1.4
                0x0001eedc       0x10 c:/apps/yagarto/bin/../lib/gcc/arm-elf/4.4.2/../../../../arm-elf/lib/thumb/thumb2\libc.a(lib_a-dtoa.o)
                                 0x14 (size before relaxing)
 .rodata        0x0001eeec       0x60 c:/apps/yagarto/bin/../lib/gcc/arm-elf/4.4.2/../../../../arm-elf/lib/thumb/thumb2\libc.a(lib_a-findfp.o)
                0x0001ef2c                __sf_fake_stderr
                0x0001eeec                __sf_fake_stdin
                0x0001ef0c                __sf_fake_stdout
 .rodata        0x0001ef4c       0x34 c:/apps/yagarto/bin/../lib/gcc/arm-elf/4.4.2/../../../../arm-elf/lib/thumb/thumb2\libc.a(lib_a-locale.o)
 .rodata.str1.4
                0x0001ef80       0x10 c:/apps/yagarto/bin/../lib/gcc/arm-elf/4.4.2/../../../../arm-elf/lib/thumb/thumb2\libc.a(lib_a-locale.o)
                                 0x18 (size before relaxing)
 .rodata        0x0001ef90      0x124 c:/apps/yagarto/bin/../lib/gcc/arm-elf/4.4.2/../../../../arm-elf/lib/thumb/thumb2\libc.a(lib_a-mprec.o)
                0x0001f08c                __mprec_tinytens
                0x0001ef90                __mprec_tens
                0x0001f064                __mprec_bigtens
                0x0001f0b4                . = ALIGN (0x4)
                0x0001f0b4                _etext = .
                [0x0001f0b4]                PROVIDE (_etext, _etext)

.glue_7         0x0001f0b4        0x0
 .glue_7        0x0001f0b4        0x0 ./lib/./STM32F10x_StdPeriph_Driver/src/misc.o
 .glue_7        0x0001f0b4        0x0 ./lib/./STM32F10x_StdPeriph_Driver/src/stm32f10x_dbgmcu.o
 .glue_7        0x0001f0b4        0x0 ./lib/./STM32F10x_StdPeriph_Driver/src/stm32f10x_flash.o
 .glue_7        0x0001f0b4        0x0 ./lib/./STM32F10x_StdPeriph_Driver/src/stm32f10x_gpio.o
 .glue_7        0x0001f0b4        0x0 ./lib/./STM32F10x_StdPeriph_Driver/src/stm32f10x_rcc.o
 .glue_7        0x0001f0b4        0x0 ./lib/./STM32F10x_StdPeriph_Driver/src/stm32f10x_sdio.o
 .glue_7        0x0001f0b4        0x0 ./lib/./STM32F10x_StdPeriph_Driver/src/stm32f10x_usart.o
 .glue_7        0x0001f0b4        0x0 ./lib/./STM32F10x_StdPeriph_Driver/src/stm32f10x_i2c.o
 .glue_7        0x0001f0b4        0x0 ./lib/./STM32F10x_StdPeriph_Driver/src/stm32f10x_dma.o
 .glue_7        0x0001f0b4        0x0 ./lib/./STM32F10x_StdPeriph_Driver/src/stm32f10x_adc.o
 .glue_7        0x0001f0b4        0x0 ./lib/./STM32F10x_StdPeriph_Driver/src/stm32f10x_dac.o
 .glue_7        0x0001f0b4        0x0 ./lib/./STM32F10x_StdPeriph_Driver/src/stm32f10x_tim.o
 .glue_7        0x0001f0b4        0x0 ./lib/./STM32F10x_StdPeriph_Driver/src/stm32f10x_fsmc.o
 .glue_7        0x0001f0b4        0x0 ./lib/./STM32F10x_StdPeriph_Driver/src/stm32f10x_exti.o
 .glue_7        0x0001f0b4        0x0 ./lib/./STM32F10x_StdPeriph_Driver/src/stm32f10x_bkp.o
 .glue_7        0x0001f0b4        0x0 ./lib/./STM32F10x_StdPeriph_Driver/src/stm32f10x_pwr.o
 .glue_7        0x0001f0b4        0x0 ./lib/./uC-CPU/Cortex-M3/GCC/cpu_c.o
 .glue_7        0x0001f0b4        0x0 ./lib/./uCOS-II/Ports/ARM-Cortex-M3/Generic/GCC/os_cpu_c.o
 .glue_7        0x0001f0b4        0x0 ./lib/./uCOS-II/Ports/ARM-Cortex-M3/Generic/GCC/os_dbg.o
 .glue_7        0x0001f0b4        0x0 ./lib/./uCOS-II/Source/os_core.o
 .glue_7        0x0001f0b4        0x0 ./lib/./uCOS-II/Source/os_flag.o
 .glue_7        0x0001f0b4        0x0 ./lib/./uCOS-II/Source/os_mbox.o
 .glue_7        0x0001f0b4        0x0 ./lib/./uCOS-II/Source/os_mem.o
 .glue_7        0x0001f0b4        0x0 ./lib/./uCOS-II/Source/os_mutex.o
 .glue_7        0x0001f0b4        0x0 ./lib/./uCOS-II/Source/os_q.o
 .glue_7        0x0001f0b4        0x0 ./lib/./uCOS-II/Source/os_sem.o
 .glue_7        0x0001f0b4        0x0 ./lib/./uCOS-II/Source/os_task.o
 .glue_7        0x0001f0b4        0x0 ./lib/./uCOS-II/Source/os_time.o
 .glue_7        0x0001f0b4        0x0 ./lib/./uCOS-II/Source/os_tmr.o
 .glue_7        0x0001f0b4        0x0 ./lib/./STM32_USB-FS-Device_Driver/src/usb_core.o
 .glue_7        0x0001f0b4        0x0 ./lib/./STM32_USB-FS-Device_Driver/src/usb_init.o
 .glue_7        0x0001f0b4        0x0 ./lib/./STM32_USB-FS-Device_Driver/src/usb_int.o
 .glue_7        0x0001f0b4        0x0 ./lib/./STM32_USB-FS-Device_Driver/src/usb_mem.o
 .glue_7        0x0001f0b4        0x0 ./lib/./STM32_USB-FS-Device_Driver/src/usb_regs.o
 .glue_7        0x0001f0b4        0x0 ./lib/./STM32_USB-FS-Device_Driver/src/usb_sil.o
 .glue_7        0x0001f0b4        0x0 ./src/application/app.o
 .glue_7        0x0001f0b4        0x0 ./src/bsp/bsp.o
 .glue_7        0x0001f0b4        0x0 ./src/bsp/bsp_globals.o
 .glue_7        0x0001f0b4        0x0 ./src/bsp/bsp_utils.o
 .glue_7        0x0001f0b4        0x0 ./src/bsp/app_int.o
 .glue_7        0x0001f0b4        0x0 ./src/bsp/app_vect.o
 .glue_7        0x0001f0b4        0x0 ./src/bsp/stm32f10x_startup.o
 .glue_7        0x0001f0b4        0x0 ./src/bsp/stm32f10x_syscall.o
 .glue_7        0x0001f0b4        0x0 ./src/bsp/sdcard.o
 .glue_7        0x0001f0b4        0x0 ./src/usb/usb_desc.o
 .glue_7        0x0001f0b4        0x0 ./src/usb/usb_endp.o
 .glue_7        0x0001f0b4        0x0 ./src/usb/usb_istr.o
 .glue_7        0x0001f0b4        0x0 ./src/usb/usb_prop.o
 .glue_7        0x0001f0b4        0x0 ./src/usb/usb_pwr.o
 .glue_7        0x0001f0b4        0x0 ./src/usb/hw_config.o
 .glue_7        0x0001f0b4        0x0 ./src/sram/fsmc_sram.o
 .glue_7        0x0001f0b4        0x0 ./lib/./uC-CPU/Cortex-M3/GCC/cpu_a.o
 .glue_7        0x0001f0b4        0x0 ./lib/./uCOS-II/Ports/ARM-Cortex-M3/Generic/GCC/os_cpu_a.o
 .glue_7        0x0001f0b4        0x0 c:/apps/yagarto/bin/../lib/gcc/arm-elf/4.4.2/../../../../arm-elf/lib/thumb/thumb2\libc.a(lib_a-fopen.o)
 .glue_7        0x0001f0b4        0x0 c:/apps/yagarto/bin/../lib/gcc/arm-elf/4.4.2/../../../../arm-elf/lib/thumb/thumb2\libc.a(lib_a-fprintf.o)
 .glue_7        0x0001f0b4        0x0 c:/apps/yagarto/bin/../lib/gcc/arm-elf/4.4.2/../../../../arm-elf/lib/thumb/thumb2\libc.a(lib_a-fseek.o)
 .glue_7        0x0001f0b4        0x0 c:/apps/yagarto/bin/../lib/gcc/arm-elf/4.4.2/../../../../arm-elf/lib/thumb/thumb2\libc.a(lib_a-fstatr.o)
 .glue_7        0x0001f0b4        0x0 c:/apps/yagarto/bin/../lib/gcc/arm-elf/4.4.2/../../../../arm-elf/lib/thumb/thumb2\libc.a(lib_a-fwrite.o)
 .glue_7        0x0001f0b4        0x0 c:/apps/yagarto/bin/../lib/gcc/arm-elf/4.4.2/../../../../arm-elf/lib/thumb/thumb2\libc.a(lib_a-impure.o)
 .glue_7        0x0001f0b4        0x0 c:/apps/yagarto/bin/../lib/gcc/arm-elf/4.4.2/../../../../arm-elf/lib/thumb/thumb2\libc.a(lib_a-makebuf.o)
 .glue_7        0x0001f0b4        0x0 c:/apps/yagarto/bin/../lib/gcc/arm-elf/4.4.2/../../../../arm-elf/lib/thumb/thumb2\libc.a(lib_a-mallocr.o)
 .glue_7        0x0001f0b4        0x0 c:/apps/yagarto/bin/../lib/gcc/arm-elf/4.4.2/../../../../arm-elf/lib/thumb/thumb2\libc.a(lib_a-memset.o)
 .glue_7        0x0001f0b4        0x0 c:/apps/yagarto/bin/../lib/gcc/arm-elf/4.4.2/../../../../arm-elf/lib/thumb/thumb2\libc.a(lib_a-mlock.o)
 .glue_7        0x0001f0b4        0x0 c:/apps/yagarto/bin/../lib/gcc/arm-elf/4.4.2/../../../../arm-elf/lib/thumb/thumb2\libc.a(lib_a-openr.o)
 .glue_7        0x0001f0b4        0x0 c:/apps/yagarto/bin/../lib/gcc/arm-elf/4.4.2/../../../../arm-elf/lib/thumb/thumb2\libc.a(lib_a-rand.o)
 .glue_7        0x0001f0b4        0x0 c:/apps/yagarto/bin/../lib/gcc/arm-elf/4.4.2/../../../../arm-elf/lib/thumb/thumb2\libc.a(lib_a-reent.o)
 .glue_7        0x0001f0b4        0x0 c:/apps/yagarto/bin/../lib/gcc/arm-elf/4.4.2/../../../../arm-elf/lib/thumb/thumb2\libc.a(lib_a-refill.o)
 .glue_7        0x0001f0b4        0x0 c:/apps/yagarto/bin/../lib/gcc/arm-elf/4.4.2/../../../../arm-elf/lib/thumb/thumb2\libc.a(lib_a-sbrkr.o)
 .glue_7        0x0001f0b4        0x0 c:/apps/yagarto/bin/../lib/gcc/arm-elf/4.4.2/../../../../arm-elf/lib/thumb/thumb2\libc.a(lib_a-stdio.o)
 .glue_7        0x0001f0b4        0x0 c:/apps/yagarto/bin/../lib/gcc/arm-elf/4.4.2/../../../../arm-elf/lib/thumb/thumb2\libc.a(lib_a-strcmp.o)
 .glue_7        0x0001f0b4        0x0 c:/apps/yagarto/bin/../lib/gcc/arm-elf/4.4.2/../../../../arm-elf/lib/thumb/thumb2\libc.a(lib_a-vfprintf.o)
 .glue_7        0x0001f0b4        0x0 c:/apps/yagarto/bin/../lib/gcc/arm-elf/4.4.2/../../../../arm-elf/lib/thumb/thumb2\libc.a(lib_a-writer.o)
 .glue_7        0x0001f0b4        0x0 c:/apps/yagarto/bin/../lib/gcc/arm-elf/4.4.2/../../../../arm-elf/lib/thumb/thumb2\libc.a(lib_a-wsetup.o)
 .glue_7        0x0001f0b4        0x0 c:/apps/yagarto/bin/../lib/gcc/arm-elf/4.4.2/../../../../arm-elf/lib/thumb/thumb2\libc.a(lib_a-closer.o)
 .glue_7        0x0001f0b4        0x0 c:/apps/yagarto/bin/../lib/gcc/arm-elf/4.4.2/../../../../arm-elf/lib/thumb/thumb2\libc.a(lib_a-dtoa.o)
 .glue_7        0x0001f0b4        0x0 c:/apps/yagarto/bin/../lib/gcc/arm-elf/4.4.2/../../../../arm-elf/lib/thumb/thumb2\libc.a(lib_a-fflush.o)
 .glue_7        0x0001f0b4        0x0 c:/apps/yagarto/bin/../lib/gcc/arm-elf/4.4.2/../../../../arm-elf/lib/thumb/thumb2\libc.a(lib_a-findfp.o)
 .glue_7        0x0001f0b4        0x0 c:/apps/yagarto/bin/../lib/gcc/arm-elf/4.4.2/../../../../arm-elf/lib/thumb/thumb2\libc.a(lib_a-flags.o)
 .glue_7        0x0001f0b4        0x0 c:/apps/yagarto/bin/../lib/gcc/arm-elf/4.4.2/../../../../arm-elf/lib/thumb/thumb2\libc.a(lib_a-freer.o)
 .glue_7        0x0001f0b4        0x0 c:/apps/yagarto/bin/../lib/gcc/arm-elf/4.4.2/../../../../arm-elf/lib/thumb/thumb2\libc.a(lib_a-fvwrite.o)
 .glue_7        0x0001f0b4        0x0 c:/apps/yagarto/bin/../lib/gcc/arm-elf/4.4.2/../../../../arm-elf/lib/thumb/thumb2\libc.a(lib_a-fwalk.o)
 .glue_7        0x0001f0b4        0x0 c:/apps/yagarto/bin/../lib/gcc/arm-elf/4.4.2/../../../../arm-elf/lib/thumb/thumb2\libc.a(lib_a-isattyr.o)
 .glue_7        0x0001f0b4        0x0 c:/apps/yagarto/bin/../lib/gcc/arm-elf/4.4.2/../../../../arm-elf/lib/thumb/thumb2\libc.a(lib_a-locale.o)
 .glue_7        0x0001f0b4        0x0 c:/apps/yagarto/bin/../lib/gcc/arm-elf/4.4.2/../../../../arm-elf/lib/thumb/thumb2\libc.a(lib_a-lseekr.o)
 .glue_7        0x0001f0b4        0x0 c:/apps/yagarto/bin/../lib/gcc/arm-elf/4.4.2/../../../../arm-elf/lib/thumb/thumb2\libc.a(lib_a-malloc.o)
 .glue_7        0x0001f0b4        0x0 c:/apps/yagarto/bin/../lib/gcc/arm-elf/4.4.2/../../../../arm-elf/lib/thumb/thumb2\libc.a(lib_a-memchr.o)
 .glue_7        0x0001f0b4        0x0 c:/apps/yagarto/bin/../lib/gcc/arm-elf/4.4.2/../../../../arm-elf/lib/thumb/thumb2\libc.a(lib_a-memcpy.o)
 .glue_7        0x0001f0b4        0x0 c:/apps/yagarto/bin/../lib/gcc/arm-elf/4.4.2/../../../../arm-elf/lib/thumb/thumb2\libc.a(lib_a-memmove.o)
 .glue_7        0x0001f0b4        0x0 c:/apps/yagarto/bin/../lib/gcc/arm-elf/4.4.2/../../../../arm-elf/lib/thumb/thumb2\libc.a(lib_a-mprec.o)
 .glue_7        0x0001f0b4        0x0 c:/apps/yagarto/bin/../lib/gcc/arm-elf/4.4.2/../../../../arm-elf/lib/thumb/thumb2\libc.a(lib_a-readr.o)
 .glue_7        0x0001f0b4        0x0 c:/apps/yagarto/bin/../lib/gcc/arm-elf/4.4.2/../../../../arm-elf/lib/thumb/thumb2\libc.a(lib_a-reallocr.o)
 .glue_7        0x0001f0b4        0x0 c:/apps/yagarto/bin/../lib/gcc/arm-elf/4.4.2/../../../../arm-elf/lib/thumb/thumb2\libc.a(lib_a-s_isinfd.o)
 .glue_7        0x0001f0b4        0x0 c:/apps/yagarto/bin/../lib/gcc/arm-elf/4.4.2/../../../../arm-elf/lib/thumb/thumb2\libc.a(lib_a-s_isnand.o)
 .glue_7        0x0001f0b4        0x0 c:/apps/yagarto/bin/../lib/gcc/arm-elf/4.4.2/../../../../arm-elf/lib/thumb/thumb2\libc.a(lib_a-strlen.o)
 .glue_7        0x0001f0b4        0x0 c:/apps/yagarto/bin/../lib/gcc/arm-elf/4.4.2/../../../../arm-elf/lib/thumb/thumb2\libc.a(lib_a-callocr.o)
 .glue_7        0x0001f0b4        0x0 c:/apps/yagarto/bin/../lib/gcc/arm-elf/4.4.2/../../../../arm-elf/lib/thumb/thumb2\libc.a(lib_a-fclose.o)
 .glue_7        0x0001f0b4        0x0 c:/apps/yagarto/bin/../lib/gcc/arm-elf/4.4.2/thumb/thumb2\libgcc.a(_udivsi3.o)
 .glue_7        0x0001f0b4        0x0 c:/apps/yagarto/bin/../lib/gcc/arm-elf/4.4.2/thumb/thumb2\libgcc.a(_dvmd_tls.o)
 .glue_7        0x0001f0b4        0x0 c:/apps/yagarto/bin/../lib/gcc/arm-elf/4.4.2/thumb/thumb2\libgcc.a(_arm_addsubdf3.o)
 .glue_7        0x0001f0b4        0x0 c:/apps/yagarto/bin/../lib/gcc/arm-elf/4.4.2/thumb/thumb2\libgcc.a(_arm_muldivdf3.o)
 .glue_7        0x0001f0b4        0x0 c:/apps/yagarto/bin/../lib/gcc/arm-elf/4.4.2/thumb/thumb2\libgcc.a(_arm_cmpdf2.o)
 .glue_7        0x0001f0b4        0x0 c:/apps/yagarto/bin/../lib/gcc/arm-elf/4.4.2/thumb/thumb2\libgcc.a(_arm_fixdfsi.o)

.glue_7t        0x0001f0b4        0x0
 .glue_7t       0x0001f0b4        0x0 ./lib/./STM32F10x_StdPeriph_Driver/src/misc.o
 .glue_7t       0x0001f0b4        0x0 ./lib/./STM32F10x_StdPeriph_Driver/src/stm32f10x_dbgmcu.o
 .glue_7t       0x0001f0b4        0x0 ./lib/./STM32F10x_StdPeriph_Driver/src/stm32f10x_flash.o
 .glue_7t       0x0001f0b4        0x0 ./lib/./STM32F10x_StdPeriph_Driver/src/stm32f10x_gpio.o
 .glue_7t       0x0001f0b4        0x0 ./lib/./STM32F10x_StdPeriph_Driver/src/stm32f10x_rcc.o
 .glue_7t       0x0001f0b4        0x0 ./lib/./STM32F10x_StdPeriph_Driver/src/stm32f10x_sdio.o
 .glue_7t       0x0001f0b4        0x0 ./lib/./STM32F10x_StdPeriph_Driver/src/stm32f10x_usart.o
 .glue_7t       0x0001f0b4        0x0 ./lib/./STM32F10x_StdPeriph_Driver/src/stm32f10x_i2c.o
 .glue_7t       0x0001f0b4        0x0 ./lib/./STM32F10x_StdPeriph_Driver/src/stm32f10x_dma.o
 .glue_7t       0x0001f0b4        0x0 ./lib/./STM32F10x_StdPeriph_Driver/src/stm32f10x_adc.o
 .glue_7t       0x0001f0b4        0x0 ./lib/./STM32F10x_StdPeriph_Driver/src/stm32f10x_dac.o
 .glue_7t       0x0001f0b4        0x0 ./lib/./STM32F10x_StdPeriph_Driver/src/stm32f10x_tim.o
 .glue_7t       0x0001f0b4        0x0 ./lib/./STM32F10x_StdPeriph_Driver/src/stm32f10x_fsmc.o
 .glue_7t       0x0001f0b4        0x0 ./lib/./STM32F10x_StdPeriph_Driver/src/stm32f10x_exti.o
 .glue_7t       0x0001f0b4        0x0 ./lib/./STM32F10x_StdPeriph_Driver/src/stm32f10x_bkp.o
 .glue_7t       0x0001f0b4        0x0 ./lib/./STM32F10x_StdPeriph_Driver/src/stm32f10x_pwr.o
 .glue_7t       0x0001f0b4        0x0 ./lib/./uC-CPU/Cortex-M3/GCC/cpu_c.o
 .glue_7t       0x0001f0b4        0x0 ./lib/./uCOS-II/Ports/ARM-Cortex-M3/Generic/GCC/os_cpu_c.o
 .glue_7t       0x0001f0b4        0x0 ./lib/./uCOS-II/Ports/ARM-Cortex-M3/Generic/GCC/os_dbg.o
 .glue_7t       0x0001f0b4        0x0 ./lib/./uCOS-II/Source/os_core.o
 .glue_7t       0x0001f0b4        0x0 ./lib/./uCOS-II/Source/os_flag.o
 .glue_7t       0x0001f0b4        0x0 ./lib/./uCOS-II/Source/os_mbox.o
 .glue_7t       0x0001f0b4        0x0 ./lib/./uCOS-II/Source/os_mem.o
 .glue_7t       0x0001f0b4        0x0 ./lib/./uCOS-II/Source/os_mutex.o
 .glue_7t       0x0001f0b4        0x0 ./lib/./uCOS-II/Source/os_q.o
 .glue_7t       0x0001f0b4        0x0 ./lib/./uCOS-II/Source/os_sem.o
 .glue_7t       0x0001f0b4        0x0 ./lib/./uCOS-II/Source/os_task.o
 .glue_7t       0x0001f0b4        0x0 ./lib/./uCOS-II/Source/os_time.o
 .glue_7t       0x0001f0b4        0x0 ./lib/./uCOS-II/Source/os_tmr.o
 .glue_7t       0x0001f0b4        0x0 ./lib/./STM32_USB-FS-Device_Driver/src/usb_core.o
 .glue_7t       0x0001f0b4        0x0 ./lib/./STM32_USB-FS-Device_Driver/src/usb_init.o
 .glue_7t       0x0001f0b4        0x0 ./lib/./STM32_USB-FS-Device_Driver/src/usb_int.o
 .glue_7t       0x0001f0b4        0x0 ./lib/./STM32_USB-FS-Device_Driver/src/usb_mem.o
 .glue_7t       0x0001f0b4        0x0 ./lib/./STM32_USB-FS-Device_Driver/src/usb_regs.o
 .glue_7t       0x0001f0b4        0x0 ./lib/./STM32_USB-FS-Device_Driver/src/usb_sil.o
 .glue_7t       0x0001f0b4        0x0 ./src/application/app.o
 .glue_7t       0x0001f0b4        0x0 ./src/bsp/bsp.o
 .glue_7t       0x0001f0b4        0x0 ./src/bsp/bsp_globals.o
 .glue_7t       0x0001f0b4        0x0 ./src/bsp/bsp_utils.o
 .glue_7t       0x0001f0b4        0x0 ./src/bsp/app_int.o
 .glue_7t       0x0001f0b4        0x0 ./src/bsp/app_vect.o
 .glue_7t       0x0001f0b4        0x0 ./src/bsp/stm32f10x_startup.o
 .glue_7t       0x0001f0b4        0x0 ./src/bsp/stm32f10x_syscall.o
 .glue_7t       0x0001f0b4        0x0 ./src/bsp/sdcard.o
 .glue_7t       0x0001f0b4        0x0 ./src/usb/usb_desc.o
 .glue_7t       0x0001f0b4        0x0 ./src/usb/usb_endp.o
 .glue_7t       0x0001f0b4        0x0 ./src/usb/usb_istr.o
 .glue_7t       0x0001f0b4        0x0 ./src/usb/usb_prop.o
 .glue_7t       0x0001f0b4        0x0 ./src/usb/usb_pwr.o
 .glue_7t       0x0001f0b4        0x0 ./src/usb/hw_config.o
 .glue_7t       0x0001f0b4        0x0 ./src/sram/fsmc_sram.o
 .glue_7t       0x0001f0b4        0x0 ./lib/./uC-CPU/Cortex-M3/GCC/cpu_a.o
 .glue_7t       0x0001f0b4        0x0 ./lib/./uCOS-II/Ports/ARM-Cortex-M3/Generic/GCC/os_cpu_a.o
 .glue_7t       0x0001f0b4        0x0 c:/apps/yagarto/bin/../lib/gcc/arm-elf/4.4.2/../../../../arm-elf/lib/thumb/thumb2\libc.a(lib_a-fopen.o)
 .glue_7t       0x0001f0b4        0x0 c:/apps/yagarto/bin/../lib/gcc/arm-elf/4.4.2/../../../../arm-elf/lib/thumb/thumb2\libc.a(lib_a-fprintf.o)
 .glue_7t       0x0001f0b4        0x0 c:/apps/yagarto/bin/../lib/gcc/arm-elf/4.4.2/../../../../arm-elf/lib/thumb/thumb2\libc.a(lib_a-fseek.o)
 .glue_7t       0x0001f0b4        0x0 c:/apps/yagarto/bin/../lib/gcc/arm-elf/4.4.2/../../../../arm-elf/lib/thumb/thumb2\libc.a(lib_a-fstatr.o)
 .glue_7t       0x0001f0b4        0x0 c:/apps/yagarto/bin/../lib/gcc/arm-elf/4.4.2/../../../../arm-elf/lib/thumb/thumb2\libc.a(lib_a-fwrite.o)
 .glue_7t       0x0001f0b4        0x0 c:/apps/yagarto/bin/../lib/gcc/arm-elf/4.4.2/../../../../arm-elf/lib/thumb/thumb2\libc.a(lib_a-impure.o)
 .glue_7t       0x0001f0b4        0x0 c:/apps/yagarto/bin/../lib/gcc/arm-elf/4.4.2/../../../../arm-elf/lib/thumb/thumb2\libc.a(lib_a-makebuf.o)
 .glue_7t       0x0001f0b4        0x0 c:/apps/yagarto/bin/../lib/gcc/arm-elf/4.4.2/../../../../arm-elf/lib/thumb/thumb2\libc.a(lib_a-mallocr.o)
 .glue_7t       0x0001f0b4        0x0 c:/apps/yagarto/bin/../lib/gcc/arm-elf/4.4.2/../../../../arm-elf/lib/thumb/thumb2\libc.a(lib_a-memset.o)
 .glue_7t       0x0001f0b4        0x0 c:/apps/yagarto/bin/../lib/gcc/arm-elf/4.4.2/../../../../arm-elf/lib/thumb/thumb2\libc.a(lib_a-mlock.o)
 .glue_7t       0x0001f0b4        0x0 c:/apps/yagarto/bin/../lib/gcc/arm-elf/4.4.2/../../../../arm-elf/lib/thumb/thumb2\libc.a(lib_a-openr.o)
 .glue_7t       0x0001f0b4        0x0 c:/apps/yagarto/bin/../lib/gcc/arm-elf/4.4.2/../../../../arm-elf/lib/thumb/thumb2\libc.a(lib_a-rand.o)
 .glue_7t       0x0001f0b4        0x0 c:/apps/yagarto/bin/../lib/gcc/arm-elf/4.4.2/../../../../arm-elf/lib/thumb/thumb2\libc.a(lib_a-reent.o)
 .glue_7t       0x0001f0b4        0x0 c:/apps/yagarto/bin/../lib/gcc/arm-elf/4.4.2/../../../../arm-elf/lib/thumb/thumb2\libc.a(lib_a-refill.o)
 .glue_7t       0x0001f0b4        0x0 c:/apps/yagarto/bin/../lib/gcc/arm-elf/4.4.2/../../../../arm-elf/lib/thumb/thumb2\libc.a(lib_a-sbrkr.o)
 .glue_7t       0x0001f0b4        0x0 c:/apps/yagarto/bin/../lib/gcc/arm-elf/4.4.2/../../../../arm-elf/lib/thumb/thumb2\libc.a(lib_a-stdio.o)
 .glue_7t       0x0001f0b4        0x0 c:/apps/yagarto/bin/../lib/gcc/arm-elf/4.4.2/../../../../arm-elf/lib/thumb/thumb2\libc.a(lib_a-strcmp.o)
 .glue_7t       0x0001f0b4        0x0 c:/apps/yagarto/bin/../lib/gcc/arm-elf/4.4.2/../../../../arm-elf/lib/thumb/thumb2\libc.a(lib_a-vfprintf.o)
 .glue_7t       0x0001f0b4        0x0 c:/apps/yagarto/bin/../lib/gcc/arm-elf/4.4.2/../../../../arm-elf/lib/thumb/thumb2\libc.a(lib_a-writer.o)
 .glue_7t       0x0001f0b4        0x0 c:/apps/yagarto/bin/../lib/gcc/arm-elf/4.4.2/../../../../arm-elf/lib/thumb/thumb2\libc.a(lib_a-wsetup.o)
 .glue_7t       0x0001f0b4        0x0 c:/apps/yagarto/bin/../lib/gcc/arm-elf/4.4.2/../../../../arm-elf/lib/thumb/thumb2\libc.a(lib_a-closer.o)
 .glue_7t       0x0001f0b4        0x0 c:/apps/yagarto/bin/../lib/gcc/arm-elf/4.4.2/../../../../arm-elf/lib/thumb/thumb2\libc.a(lib_a-dtoa.o)
 .glue_7t       0x0001f0b4        0x0 c:/apps/yagarto/bin/../lib/gcc/arm-elf/4.4.2/../../../../arm-elf/lib/thumb/thumb2\libc.a(lib_a-fflush.o)
 .glue_7t       0x0001f0b4        0x0 c:/apps/yagarto/bin/../lib/gcc/arm-elf/4.4.2/../../../../arm-elf/lib/thumb/thumb2\libc.a(lib_a-findfp.o)
 .glue_7t       0x0001f0b4        0x0 c:/apps/yagarto/bin/../lib/gcc/arm-elf/4.4.2/../../../../arm-elf/lib/thumb/thumb2\libc.a(lib_a-flags.o)
 .glue_7t       0x0001f0b4        0x0 c:/apps/yagarto/bin/../lib/gcc/arm-elf/4.4.2/../../../../arm-elf/lib/thumb/thumb2\libc.a(lib_a-freer.o)
 .glue_7t       0x0001f0b4        0x0 c:/apps/yagarto/bin/../lib/gcc/arm-elf/4.4.2/../../../../arm-elf/lib/thumb/thumb2\libc.a(lib_a-fvwrite.o)
 .glue_7t       0x0001f0b4        0x0 c:/apps/yagarto/bin/../lib/gcc/arm-elf/4.4.2/../../../../arm-elf/lib/thumb/thumb2\libc.a(lib_a-fwalk.o)
 .glue_7t       0x0001f0b4        0x0 c:/apps/yagarto/bin/../lib/gcc/arm-elf/4.4.2/../../../../arm-elf/lib/thumb/thumb2\libc.a(lib_a-isattyr.o)
 .glue_7t       0x0001f0b4        0x0 c:/apps/yagarto/bin/../lib/gcc/arm-elf/4.4.2/../../../../arm-elf/lib/thumb/thumb2\libc.a(lib_a-locale.o)
 .glue_7t       0x0001f0b4        0x0 c:/apps/yagarto/bin/../lib/gcc/arm-elf/4.4.2/../../../../arm-elf/lib/thumb/thumb2\libc.a(lib_a-lseekr.o)
 .glue_7t       0x0001f0b4        0x0 c:/apps/yagarto/bin/../lib/gcc/arm-elf/4.4.2/../../../../arm-elf/lib/thumb/thumb2\libc.a(lib_a-malloc.o)
 .glue_7t       0x0001f0b4        0x0 c:/apps/yagarto/bin/../lib/gcc/arm-elf/4.4.2/../../../../arm-elf/lib/thumb/thumb2\libc.a(lib_a-memchr.o)
 .glue_7t       0x0001f0b4        0x0 c:/apps/yagarto/bin/../lib/gcc/arm-elf/4.4.2/../../../../arm-elf/lib/thumb/thumb2\libc.a(lib_a-memcpy.o)
 .glue_7t       0x0001f0b4        0x0 c:/apps/yagarto/bin/../lib/gcc/arm-elf/4.4.2/../../../../arm-elf/lib/thumb/thumb2\libc.a(lib_a-memmove.o)
 .glue_7t       0x0001f0b4        0x0 c:/apps/yagarto/bin/../lib/gcc/arm-elf/4.4.2/../../../../arm-elf/lib/thumb/thumb2\libc.a(lib_a-mprec.o)
 .glue_7t       0x0001f0b4        0x0 c:/apps/yagarto/bin/../lib/gcc/arm-elf/4.4.2/../../../../arm-elf/lib/thumb/thumb2\libc.a(lib_a-readr.o)
 .glue_7t       0x0001f0b4        0x0 c:/apps/yagarto/bin/../lib/gcc/arm-elf/4.4.2/../../../../arm-elf/lib/thumb/thumb2\libc.a(lib_a-reallocr.o)
 .glue_7t       0x0001f0b4        0x0 c:/apps/yagarto/bin/../lib/gcc/arm-elf/4.4.2/../../../../arm-elf/lib/thumb/thumb2\libc.a(lib_a-s_isinfd.o)
 .glue_7t       0x0001f0b4        0x0 c:/apps/yagarto/bin/../lib/gcc/arm-elf/4.4.2/../../../../arm-elf/lib/thumb/thumb2\libc.a(lib_a-s_isnand.o)
 .glue_7t       0x0001f0b4        0x0 c:/apps/yagarto/bin/../lib/gcc/arm-elf/4.4.2/../../../../arm-elf/lib/thumb/thumb2\libc.a(lib_a-strlen.o)
 .glue_7t       0x0001f0b4        0x0 c:/apps/yagarto/bin/../lib/gcc/arm-elf/4.4.2/../../../../arm-elf/lib/thumb/thumb2\libc.a(lib_a-callocr.o)
 .glue_7t       0x0001f0b4        0x0 c:/apps/yagarto/bin/../lib/gcc/arm-elf/4.4.2/../../../../arm-elf/lib/thumb/thumb2\libc.a(lib_a-fclose.o)
 .glue_7t       0x0001f0b4        0x0 c:/apps/yagarto/bin/../lib/gcc/arm-elf/4.4.2/thumb/thumb2\libgcc.a(_udivsi3.o)
 .glue_7t       0x0001f0b4        0x0 c:/apps/yagarto/bin/../lib/gcc/arm-elf/4.4.2/thumb/thumb2\libgcc.a(_dvmd_tls.o)
 .glue_7t       0x0001f0b4        0x0 c:/apps/yagarto/bin/../lib/gcc/arm-elf/4.4.2/thumb/thumb2\libgcc.a(_arm_addsubdf3.o)
 .glue_7t       0x0001f0b4        0x0 c:/apps/yagarto/bin/../lib/gcc/arm-elf/4.4.2/thumb/thumb2\libgcc.a(_arm_muldivdf3.o)
 .glue_7t       0x0001f0b4        0x0 c:/apps/yagarto/bin/../lib/gcc/arm-elf/4.4.2/thumb/thumb2\libgcc.a(_arm_cmpdf2.o)
 .glue_7t       0x0001f0b4        0x0 c:/apps/yagarto/bin/../lib/gcc/arm-elf/4.4.2/thumb/thumb2\libgcc.a(_arm_fixdfsi.o)

.vfp11_veneer   0x0001f0b4        0x0
 .vfp11_veneer  0x0001f0b4        0x0 ./lib/./STM32F10x_StdPeriph_Driver/src/misc.o
 .vfp11_veneer  0x0001f0b4        0x0 ./lib/./STM32F10x_StdPeriph_Driver/src/stm32f10x_dbgmcu.o
 .vfp11_veneer  0x0001f0b4        0x0 ./lib/./STM32F10x_StdPeriph_Driver/src/stm32f10x_flash.o
 .vfp11_veneer  0x0001f0b4        0x0 ./lib/./STM32F10x_StdPeriph_Driver/src/stm32f10x_gpio.o
 .vfp11_veneer  0x0001f0b4        0x0 ./lib/./STM32F10x_StdPeriph_Driver/src/stm32f10x_rcc.o
 .vfp11_veneer  0x0001f0b4        0x0 ./lib/./STM32F10x_StdPeriph_Driver/src/stm32f10x_sdio.o
 .vfp11_veneer  0x0001f0b4        0x0 ./lib/./STM32F10x_StdPeriph_Driver/src/stm32f10x_usart.o
 .vfp11_veneer  0x0001f0b4        0x0 ./lib/./STM32F10x_StdPeriph_Driver/src/stm32f10x_i2c.o
 .vfp11_veneer  0x0001f0b4        0x0 ./lib/./STM32F10x_StdPeriph_Driver/src/stm32f10x_dma.o
 .vfp11_veneer  0x0001f0b4        0x0 ./lib/./STM32F10x_StdPeriph_Driver/src/stm32f10x_adc.o
 .vfp11_veneer  0x0001f0b4        0x0 ./lib/./STM32F10x_StdPeriph_Driver/src/stm32f10x_dac.o
 .vfp11_veneer  0x0001f0b4        0x0 ./lib/./STM32F10x_StdPeriph_Driver/src/stm32f10x_tim.o
 .vfp11_veneer  0x0001f0b4        0x0 ./lib/./STM32F10x_StdPeriph_Driver/src/stm32f10x_fsmc.o
 .vfp11_veneer  0x0001f0b4        0x0 ./lib/./STM32F10x_StdPeriph_Driver/src/stm32f10x_exti.o
 .vfp11_veneer  0x0001f0b4        0x0 ./lib/./STM32F10x_StdPeriph_Driver/src/stm32f10x_bkp.o
 .vfp11_veneer  0x0001f0b4        0x0 ./lib/./STM32F10x_StdPeriph_Driver/src/stm32f10x_pwr.o
 .vfp11_veneer  0x0001f0b4        0x0 ./lib/./uC-CPU/Cortex-M3/GCC/cpu_c.o
 .vfp11_veneer  0x0001f0b4        0x0 ./lib/./uCOS-II/Ports/ARM-Cortex-M3/Generic/GCC/os_cpu_c.o
 .vfp11_veneer  0x0001f0b4        0x0 ./lib/./uCOS-II/Ports/ARM-Cortex-M3/Generic/GCC/os_dbg.o
 .vfp11_veneer  0x0001f0b4        0x0 ./lib/./uCOS-II/Source/os_core.o
 .vfp11_veneer  0x0001f0b4        0x0 ./lib/./uCOS-II/Source/os_flag.o
 .vfp11_veneer  0x0001f0b4        0x0 ./lib/./uCOS-II/Source/os_mbox.o
 .vfp11_veneer  0x0001f0b4        0x0 ./lib/./uCOS-II/Source/os_mem.o
 .vfp11_veneer  0x0001f0b4        0x0 ./lib/./uCOS-II/Source/os_mutex.o
 .vfp11_veneer  0x0001f0b4        0x0 ./lib/./uCOS-II/Source/os_q.o
 .vfp11_veneer  0x0001f0b4        0x0 ./lib/./uCOS-II/Source/os_sem.o
 .vfp11_veneer  0x0001f0b4        0x0 ./lib/./uCOS-II/Source/os_task.o
 .vfp11_veneer  0x0001f0b4        0x0 ./lib/./uCOS-II/Source/os_time.o
 .vfp11_veneer  0x0001f0b4        0x0 ./lib/./uCOS-II/Source/os_tmr.o
 .vfp11_veneer  0x0001f0b4        0x0 ./lib/./STM32_USB-FS-Device_Driver/src/usb_core.o
 .vfp11_veneer  0x0001f0b4        0x0 ./lib/./STM32_USB-FS-Device_Driver/src/usb_init.o
 .vfp11_veneer  0x0001f0b4        0x0 ./lib/./STM32_USB-FS-Device_Driver/src/usb_int.o
 .vfp11_veneer  0x0001f0b4        0x0 ./lib/./STM32_USB-FS-Device_Driver/src/usb_mem.o
 .vfp11_veneer  0x0001f0b4        0x0 ./lib/./STM32_USB-FS-Device_Driver/src/usb_regs.o
 .vfp11_veneer  0x0001f0b4        0x0 ./lib/./STM32_USB-FS-Device_Driver/src/usb_sil.o
 .vfp11_veneer  0x0001f0b4        0x0 ./src/application/app.o
 .vfp11_veneer  0x0001f0b4        0x0 ./src/bsp/bsp.o
 .vfp11_veneer  0x0001f0b4        0x0 ./src/bsp/bsp_globals.o
 .vfp11_veneer  0x0001f0b4        0x0 ./src/bsp/bsp_utils.o
 .vfp11_veneer  0x0001f0b4        0x0 ./src/bsp/app_int.o
 .vfp11_veneer  0x0001f0b4        0x0 ./src/bsp/app_vect.o
 .vfp11_veneer  0x0001f0b4        0x0 ./src/bsp/stm32f10x_startup.o
 .vfp11_veneer  0x0001f0b4        0x0 ./src/bsp/stm32f10x_syscall.o
 .vfp11_veneer  0x0001f0b4        0x0 ./src/bsp/sdcard.o
 .vfp11_veneer  0x0001f0b4        0x0 ./src/usb/usb_desc.o
 .vfp11_veneer  0x0001f0b4        0x0 ./src/usb/usb_endp.o
 .vfp11_veneer  0x0001f0b4        0x0 ./src/usb/usb_istr.o
 .vfp11_veneer  0x0001f0b4        0x0 ./src/usb/usb_prop.o
 .vfp11_veneer  0x0001f0b4        0x0 ./src/usb/usb_pwr.o
 .vfp11_veneer  0x0001f0b4        0x0 ./src/usb/hw_config.o
 .vfp11_veneer  0x0001f0b4        0x0 ./src/sram/fsmc_sram.o
 .vfp11_veneer  0x0001f0b4        0x0 ./lib/./uC-CPU/Cortex-M3/GCC/cpu_a.o
 .vfp11_veneer  0x0001f0b4        0x0 ./lib/./uCOS-II/Ports/ARM-Cortex-M3/Generic/GCC/os_cpu_a.o
 .vfp11_veneer  0x0001f0b4        0x0 c:/apps/yagarto/bin/../lib/gcc/arm-elf/4.4.2/../../../../arm-elf/lib/thumb/thumb2\libc.a(lib_a-fopen.o)
 .vfp11_veneer  0x0001f0b4        0x0 c:/apps/yagarto/bin/../lib/gcc/arm-elf/4.4.2/../../../../arm-elf/lib/thumb/thumb2\libc.a(lib_a-fprintf.o)
 .vfp11_veneer  0x0001f0b4        0x0 c:/apps/yagarto/bin/../lib/gcc/arm-elf/4.4.2/../../../../arm-elf/lib/thumb/thumb2\libc.a(lib_a-fseek.o)
 .vfp11_veneer  0x0001f0b4        0x0 c:/apps/yagarto/bin/../lib/gcc/arm-elf/4.4.2/../../../../arm-elf/lib/thumb/thumb2\libc.a(lib_a-fstatr.o)
 .vfp11_veneer  0x0001f0b4        0x0 c:/apps/yagarto/bin/../lib/gcc/arm-elf/4.4.2/../../../../arm-elf/lib/thumb/thumb2\libc.a(lib_a-fwrite.o)
 .vfp11_veneer  0x0001f0b4        0x0 c:/apps/yagarto/bin/../lib/gcc/arm-elf/4.4.2/../../../../arm-elf/lib/thumb/thumb2\libc.a(lib_a-impure.o)
 .vfp11_veneer  0x0001f0b4        0x0 c:/apps/yagarto/bin/../lib/gcc/arm-elf/4.4.2/../../../../arm-elf/lib/thumb/thumb2\libc.a(lib_a-makebuf.o)
 .vfp11_veneer  0x0001f0b4        0x0 c:/apps/yagarto/bin/../lib/gcc/arm-elf/4.4.2/../../../../arm-elf/lib/thumb/thumb2\libc.a(lib_a-mallocr.o)
 .vfp11_veneer  0x0001f0b4        0x0 c:/apps/yagarto/bin/../lib/gcc/arm-elf/4.4.2/../../../../arm-elf/lib/thumb/thumb2\libc.a(lib_a-memset.o)
 .vfp11_veneer  0x0001f0b4        0x0 c:/apps/yagarto/bin/../lib/gcc/arm-elf/4.4.2/../../../../arm-elf/lib/thumb/thumb2\libc.a(lib_a-mlock.o)
 .vfp11_veneer  0x0001f0b4        0x0 c:/apps/yagarto/bin/../lib/gcc/arm-elf/4.4.2/../../../../arm-elf/lib/thumb/thumb2\libc.a(lib_a-openr.o)
 .vfp11_veneer  0x0001f0b4        0x0 c:/apps/yagarto/bin/../lib/gcc/arm-elf/4.4.2/../../../../arm-elf/lib/thumb/thumb2\libc.a(lib_a-rand.o)
 .vfp11_veneer  0x0001f0b4        0x0 c:/apps/yagarto/bin/../lib/gcc/arm-elf/4.4.2/../../../../arm-elf/lib/thumb/thumb2\libc.a(lib_a-reent.o)
 .vfp11_veneer  0x0001f0b4        0x0 c:/apps/yagarto/bin/../lib/gcc/arm-elf/4.4.2/../../../../arm-elf/lib/thumb/thumb2\libc.a(lib_a-refill.o)
 .vfp11_veneer  0x0001f0b4        0x0 c:/apps/yagarto/bin/../lib/gcc/arm-elf/4.4.2/../../../../arm-elf/lib/thumb/thumb2\libc.a(lib_a-sbrkr.o)
 .vfp11_veneer  0x0001f0b4        0x0 c:/apps/yagarto/bin/../lib/gcc/arm-elf/4.4.2/../../../../arm-elf/lib/thumb/thumb2\libc.a(lib_a-stdio.o)
 .vfp11_veneer  0x0001f0b4        0x0 c:/apps/yagarto/bin/../lib/gcc/arm-elf/4.4.2/../../../../arm-elf/lib/thumb/thumb2\libc.a(lib_a-strcmp.o)
 .vfp11_veneer  0x0001f0b4        0x0 c:/apps/yagarto/bin/../lib/gcc/arm-elf/4.4.2/../../../../arm-elf/lib/thumb/thumb2\libc.a(lib_a-vfprintf.o)
 .vfp11_veneer  0x0001f0b4        0x0 c:/apps/yagarto/bin/../lib/gcc/arm-elf/4.4.2/../../../../arm-elf/lib/thumb/thumb2\libc.a(lib_a-writer.o)
 .vfp11_veneer  0x0001f0b4        0x0 c:/apps/yagarto/bin/../lib/gcc/arm-elf/4.4.2/../../../../arm-elf/lib/thumb/thumb2\libc.a(lib_a-wsetup.o)
 .vfp11_veneer  0x0001f0b4        0x0 c:/apps/yagarto/bin/../lib/gcc/arm-elf/4.4.2/../../../../arm-elf/lib/thumb/thumb2\libc.a(lib_a-closer.o)
 .vfp11_veneer  0x0001f0b4        0x0 c:/apps/yagarto/bin/../lib/gcc/arm-elf/4.4.2/../../../../arm-elf/lib/thumb/thumb2\libc.a(lib_a-dtoa.o)
 .vfp11_veneer  0x0001f0b4        0x0 c:/apps/yagarto/bin/../lib/gcc/arm-elf/4.4.2/../../../../arm-elf/lib/thumb/thumb2\libc.a(lib_a-fflush.o)
 .vfp11_veneer  0x0001f0b4        0x0 c:/apps/yagarto/bin/../lib/gcc/arm-elf/4.4.2/../../../../arm-elf/lib/thumb/thumb2\libc.a(lib_a-findfp.o)
 .vfp11_veneer  0x0001f0b4        0x0 c:/apps/yagarto/bin/../lib/gcc/arm-elf/4.4.2/../../../../arm-elf/lib/thumb/thumb2\libc.a(lib_a-flags.o)
 .vfp11_veneer  0x0001f0b4        0x0 c:/apps/yagarto/bin/../lib/gcc/arm-elf/4.4.2/../../../../arm-elf/lib/thumb/thumb2\libc.a(lib_a-freer.o)
 .vfp11_veneer  0x0001f0b4        0x0 c:/apps/yagarto/bin/../lib/gcc/arm-elf/4.4.2/../../../../arm-elf/lib/thumb/thumb2\libc.a(lib_a-fvwrite.o)
 .vfp11_veneer  0x0001f0b4        0x0 c:/apps/yagarto/bin/../lib/gcc/arm-elf/4.4.2/../../../../arm-elf/lib/thumb/thumb2\libc.a(lib_a-fwalk.o)
 .vfp11_veneer  0x0001f0b4        0x0 c:/apps/yagarto/bin/../lib/gcc/arm-elf/4.4.2/../../../../arm-elf/lib/thumb/thumb2\libc.a(lib_a-isattyr.o)
 .vfp11_veneer  0x0001f0b4        0x0 c:/apps/yagarto/bin/../lib/gcc/arm-elf/4.4.2/../../../../arm-elf/lib/thumb/thumb2\libc.a(lib_a-locale.o)
 .vfp11_veneer  0x0001f0b4        0x0 c:/apps/yagarto/bin/../lib/gcc/arm-elf/4.4.2/../../../../arm-elf/lib/thumb/thumb2\libc.a(lib_a-lseekr.o)
 .vfp11_veneer  0x0001f0b4        0x0 c:/apps/yagarto/bin/../lib/gcc/arm-elf/4.4.2/../../../../arm-elf/lib/thumb/thumb2\libc.a(lib_a-malloc.o)
 .vfp11_veneer  0x0001f0b4        0x0 c:/apps/yagarto/bin/../lib/gcc/arm-elf/4.4.2/../../../../arm-elf/lib/thumb/thumb2\libc.a(lib_a-memchr.o)
 .vfp11_veneer  0x0001f0b4        0x0 c:/apps/yagarto/bin/../lib/gcc/arm-elf/4.4.2/../../../../arm-elf/lib/thumb/thumb2\libc.a(lib_a-memcpy.o)
 .vfp11_veneer  0x0001f0b4        0x0 c:/apps/yagarto/bin/../lib/gcc/arm-elf/4.4.2/../../../../arm-elf/lib/thumb/thumb2\libc.a(lib_a-memmove.o)
 .vfp11_veneer  0x0001f0b4        0x0 c:/apps/yagarto/bin/../lib/gcc/arm-elf/4.4.2/../../../../arm-elf/lib/thumb/thumb2\libc.a(lib_a-mprec.o)
 .vfp11_veneer  0x0001f0b4        0x0 c:/apps/yagarto/bin/../lib/gcc/arm-elf/4.4.2/../../../../arm-elf/lib/thumb/thumb2\libc.a(lib_a-readr.o)
 .vfp11_veneer  0x0001f0b4        0x0 c:/apps/yagarto/bin/../lib/gcc/arm-elf/4.4.2/../../../../arm-elf/lib/thumb/thumb2\libc.a(lib_a-reallocr.o)
 .vfp11_veneer  0x0001f0b4        0x0 c:/apps/yagarto/bin/../lib/gcc/arm-elf/4.4.2/../../../../arm-elf/lib/thumb/thumb2\libc.a(lib_a-s_isinfd.o)
 .vfp11_veneer  0x0001f0b4        0x0 c:/apps/yagarto/bin/../lib/gcc/arm-elf/4.4.2/../../../../arm-elf/lib/thumb/thumb2\libc.a(lib_a-s_isnand.o)
 .vfp11_veneer  0x0001f0b4        0x0 c:/apps/yagarto/bin/../lib/gcc/arm-elf/4.4.2/../../../../arm-elf/lib/thumb/thumb2\libc.a(lib_a-strlen.o)
 .vfp11_veneer  0x0001f0b4        0x0 c:/apps/yagarto/bin/../lib/gcc/arm-elf/4.4.2/../../../../arm-elf/lib/thumb/thumb2\libc.a(lib_a-callocr.o)
 .vfp11_veneer  0x0001f0b4        0x0 c:/apps/yagarto/bin/../lib/gcc/arm-elf/4.4.2/../../../../arm-elf/lib/thumb/thumb2\libc.a(lib_a-fclose.o)
 .vfp11_veneer  0x0001f0b4        0x0 c:/apps/yagarto/bin/../lib/gcc/arm-elf/4.4.2/thumb/thumb2\libgcc.a(_udivsi3.o)
 .vfp11_veneer  0x0001f0b4        0x0 c:/apps/yagarto/bin/../lib/gcc/arm-elf/4.4.2/thumb/thumb2\libgcc.a(_dvmd_tls.o)
 .vfp11_veneer  0x0001f0b4        0x0 c:/apps/yagarto/bin/../lib/gcc/arm-elf/4.4.2/thumb/thumb2\libgcc.a(_arm_addsubdf3.o)
 .vfp11_veneer  0x0001f0b4        0x0 c:/apps/yagarto/bin/../lib/gcc/arm-elf/4.4.2/thumb/thumb2\libgcc.a(_arm_muldivdf3.o)
 .vfp11_veneer  0x0001f0b4        0x0 c:/apps/yagarto/bin/../lib/gcc/arm-elf/4.4.2/thumb/thumb2\libgcc.a(_arm_cmpdf2.o)
 .vfp11_veneer  0x0001f0b4        0x0 c:/apps/yagarto/bin/../lib/gcc/arm-elf/4.4.2/thumb/thumb2\libgcc.a(_arm_fixdfsi.o)

.v4_bx          0x0001f0b4        0x0
 .v4_bx         0x0001f0b4        0x0 ./lib/./STM32F10x_StdPeriph_Driver/src/misc.o
 .v4_bx         0x0001f0b4        0x0 ./lib/./STM32F10x_StdPeriph_Driver/src/stm32f10x_dbgmcu.o
 .v4_bx         0x0001f0b4        0x0 ./lib/./STM32F10x_StdPeriph_Driver/src/stm32f10x_flash.o
 .v4_bx         0x0001f0b4        0x0 ./lib/./STM32F10x_StdPeriph_Driver/src/stm32f10x_gpio.o
 .v4_bx         0x0001f0b4        0x0 ./lib/./STM32F10x_StdPeriph_Driver/src/stm32f10x_rcc.o
 .v4_bx         0x0001f0b4        0x0 ./lib/./STM32F10x_StdPeriph_Driver/src/stm32f10x_sdio.o
 .v4_bx         0x0001f0b4        0x0 ./lib/./STM32F10x_StdPeriph_Driver/src/stm32f10x_usart.o
 .v4_bx         0x0001f0b4        0x0 ./lib/./STM32F10x_StdPeriph_Driver/src/stm32f10x_i2c.o
 .v4_bx         0x0001f0b4        0x0 ./lib/./STM32F10x_StdPeriph_Driver/src/stm32f10x_dma.o
 .v4_bx         0x0001f0b4        0x0 ./lib/./STM32F10x_StdPeriph_Driver/src/stm32f10x_adc.o
 .v4_bx         0x0001f0b4        0x0 ./lib/./STM32F10x_StdPeriph_Driver/src/stm32f10x_dac.o
 .v4_bx         0x0001f0b4        0x0 ./lib/./STM32F10x_StdPeriph_Driver/src/stm32f10x_tim.o
 .v4_bx         0x0001f0b4        0x0 ./lib/./STM32F10x_StdPeriph_Driver/src/stm32f10x_fsmc.o
 .v4_bx         0x0001f0b4        0x0 ./lib/./STM32F10x_StdPeriph_Driver/src/stm32f10x_exti.o
 .v4_bx         0x0001f0b4        0x0 ./lib/./STM32F10x_StdPeriph_Driver/src/stm32f10x_bkp.o
 .v4_bx         0x0001f0b4        0x0 ./lib/./STM32F10x_StdPeriph_Driver/src/stm32f10x_pwr.o
 .v4_bx         0x0001f0b4        0x0 ./lib/./uC-CPU/Cortex-M3/GCC/cpu_c.o
 .v4_bx         0x0001f0b4        0x0 ./lib/./uCOS-II/Ports/ARM-Cortex-M3/Generic/GCC/os_cpu_c.o
 .v4_bx         0x0001f0b4        0x0 ./lib/./uCOS-II/Ports/ARM-Cortex-M3/Generic/GCC/os_dbg.o
 .v4_bx         0x0001f0b4        0x0 ./lib/./uCOS-II/Source/os_core.o
 .v4_bx         0x0001f0b4        0x0 ./lib/./uCOS-II/Source/os_flag.o
 .v4_bx         0x0001f0b4        0x0 ./lib/./uCOS-II/Source/os_mbox.o
 .v4_bx         0x0001f0b4        0x0 ./lib/./uCOS-II/Source/os_mem.o
 .v4_bx         0x0001f0b4        0x0 ./lib/./uCOS-II/Source/os_mutex.o
 .v4_bx         0x0001f0b4        0x0 ./lib/./uCOS-II/Source/os_q.o
 .v4_bx         0x0001f0b4        0x0 ./lib/./uCOS-II/Source/os_sem.o
 .v4_bx         0x0001f0b4        0x0 ./lib/./uCOS-II/Source/os_task.o
 .v4_bx         0x0001f0b4        0x0 ./lib/./uCOS-II/Source/os_time.o
 .v4_bx         0x0001f0b4        0x0 ./lib/./uCOS-II/Source/os_tmr.o
 .v4_bx         0x0001f0b4        0x0 ./lib/./STM32_USB-FS-Device_Driver/src/usb_core.o
 .v4_bx         0x0001f0b4        0x0 ./lib/./STM32_USB-FS-Device_Driver/src/usb_init.o
 .v4_bx         0x0001f0b4        0x0 ./lib/./STM32_USB-FS-Device_Driver/src/usb_int.o
 .v4_bx         0x0001f0b4        0x0 ./lib/./STM32_USB-FS-Device_Driver/src/usb_mem.o
 .v4_bx         0x0001f0b4        0x0 ./lib/./STM32_USB-FS-Device_Driver/src/usb_regs.o
 .v4_bx         0x0001f0b4        0x0 ./lib/./STM32_USB-FS-Device_Driver/src/usb_sil.o
 .v4_bx         0x0001f0b4        0x0 ./src/application/app.o
 .v4_bx         0x0001f0b4        0x0 ./src/bsp/bsp.o
 .v4_bx         0x0001f0b4        0x0 ./src/bsp/bsp_globals.o
 .v4_bx         0x0001f0b4        0x0 ./src/bsp/bsp_utils.o
 .v4_bx         0x0001f0b4        0x0 ./src/bsp/app_int.o
 .v4_bx         0x0001f0b4        0x0 ./src/bsp/app_vect.o
 .v4_bx         0x0001f0b4        0x0 ./src/bsp/stm32f10x_startup.o
 .v4_bx         0x0001f0b4        0x0 ./src/bsp/stm32f10x_syscall.o
 .v4_bx         0x0001f0b4        0x0 ./src/bsp/sdcard.o
 .v4_bx         0x0001f0b4        0x0 ./src/usb/usb_desc.o
 .v4_bx         0x0001f0b4        0x0 ./src/usb/usb_endp.o
 .v4_bx         0x0001f0b4        0x0 ./src/usb/usb_istr.o
 .v4_bx         0x0001f0b4        0x0 ./src/usb/usb_prop.o
 .v4_bx         0x0001f0b4        0x0 ./src/usb/usb_pwr.o
 .v4_bx         0x0001f0b4        0x0 ./src/usb/hw_config.o
 .v4_bx         0x0001f0b4        0x0 ./src/sram/fsmc_sram.o
 .v4_bx         0x0001f0b4        0x0 ./lib/./uC-CPU/Cortex-M3/GCC/cpu_a.o
 .v4_bx         0x0001f0b4        0x0 ./lib/./uCOS-II/Ports/ARM-Cortex-M3/Generic/GCC/os_cpu_a.o
 .v4_bx         0x0001f0b4        0x0 c:/apps/yagarto/bin/../lib/gcc/arm-elf/4.4.2/../../../../arm-elf/lib/thumb/thumb2\libc.a(lib_a-fopen.o)
 .v4_bx         0x0001f0b4        0x0 c:/apps/yagarto/bin/../lib/gcc/arm-elf/4.4.2/../../../../arm-elf/lib/thumb/thumb2\libc.a(lib_a-fprintf.o)
 .v4_bx         0x0001f0b4        0x0 c:/apps/yagarto/bin/../lib/gcc/arm-elf/4.4.2/../../../../arm-elf/lib/thumb/thumb2\libc.a(lib_a-fseek.o)
 .v4_bx         0x0001f0b4        0x0 c:/apps/yagarto/bin/../lib/gcc/arm-elf/4.4.2/../../../../arm-elf/lib/thumb/thumb2\libc.a(lib_a-fstatr.o)
 .v4_bx         0x0001f0b4        0x0 c:/apps/yagarto/bin/../lib/gcc/arm-elf/4.4.2/../../../../arm-elf/lib/thumb/thumb2\libc.a(lib_a-fwrite.o)
 .v4_bx         0x0001f0b4        0x0 c:/apps/yagarto/bin/../lib/gcc/arm-elf/4.4.2/../../../../arm-elf/lib/thumb/thumb2\libc.a(lib_a-impure.o)
 .v4_bx         0x0001f0b4        0x0 c:/apps/yagarto/bin/../lib/gcc/arm-elf/4.4.2/../../../../arm-elf/lib/thumb/thumb2\libc.a(lib_a-makebuf.o)
 .v4_bx         0x0001f0b4        0x0 c:/apps/yagarto/bin/../lib/gcc/arm-elf/4.4.2/../../../../arm-elf/lib/thumb/thumb2\libc.a(lib_a-mallocr.o)
 .v4_bx         0x0001f0b4        0x0 c:/apps/yagarto/bin/../lib/gcc/arm-elf/4.4.2/../../../../arm-elf/lib/thumb/thumb2\libc.a(lib_a-memset.o)
 .v4_bx         0x0001f0b4        0x0 c:/apps/yagarto/bin/../lib/gcc/arm-elf/4.4.2/../../../../arm-elf/lib/thumb/thumb2\libc.a(lib_a-mlock.o)
 .v4_bx         0x0001f0b4        0x0 c:/apps/yagarto/bin/../lib/gcc/arm-elf/4.4.2/../../../../arm-elf/lib/thumb/thumb2\libc.a(lib_a-openr.o)
 .v4_bx         0x0001f0b4        0x0 c:/apps/yagarto/bin/../lib/gcc/arm-elf/4.4.2/../../../../arm-elf/lib/thumb/thumb2\libc.a(lib_a-rand.o)
 .v4_bx         0x0001f0b4        0x0 c:/apps/yagarto/bin/../lib/gcc/arm-elf/4.4.2/../../../../arm-elf/lib/thumb/thumb2\libc.a(lib_a-reent.o)
 .v4_bx         0x0001f0b4        0x0 c:/apps/yagarto/bin/../lib/gcc/arm-elf/4.4.2/../../../../arm-elf/lib/thumb/thumb2\libc.a(lib_a-refill.o)
 .v4_bx         0x0001f0b4        0x0 c:/apps/yagarto/bin/../lib/gcc/arm-elf/4.4.2/../../../../arm-elf/lib/thumb/thumb2\libc.a(lib_a-sbrkr.o)
 .v4_bx         0x0001f0b4        0x0 c:/apps/yagarto/bin/../lib/gcc/arm-elf/4.4.2/../../../../arm-elf/lib/thumb/thumb2\libc.a(lib_a-stdio.o)
 .v4_bx         0x0001f0b4        0x0 c:/apps/yagarto/bin/../lib/gcc/arm-elf/4.4.2/../../../../arm-elf/lib/thumb/thumb2\libc.a(lib_a-strcmp.o)
 .v4_bx         0x0001f0b4        0x0 c:/apps/yagarto/bin/../lib/gcc/arm-elf/4.4.2/../../../../arm-elf/lib/thumb/thumb2\libc.a(lib_a-vfprintf.o)
 .v4_bx         0x0001f0b4        0x0 c:/apps/yagarto/bin/../lib/gcc/arm-elf/4.4.2/../../../../arm-elf/lib/thumb/thumb2\libc.a(lib_a-writer.o)
 .v4_bx         0x0001f0b4        0x0 c:/apps/yagarto/bin/../lib/gcc/arm-elf/4.4.2/../../../../arm-elf/lib/thumb/thumb2\libc.a(lib_a-wsetup.o)
 .v4_bx         0x0001f0b4        0x0 c:/apps/yagarto/bin/../lib/gcc/arm-elf/4.4.2/../../../../arm-elf/lib/thumb/thumb2\libc.a(lib_a-closer.o)
 .v4_bx         0x0001f0b4        0x0 c:/apps/yagarto/bin/../lib/gcc/arm-elf/4.4.2/../../../../arm-elf/lib/thumb/thumb2\libc.a(lib_a-dtoa.o)
 .v4_bx         0x0001f0b4        0x0 c:/apps/yagarto/bin/../lib/gcc/arm-elf/4.4.2/../../../../arm-elf/lib/thumb/thumb2\libc.a(lib_a-fflush.o)
 .v4_bx         0x0001f0b4        0x0 c:/apps/yagarto/bin/../lib/gcc/arm-elf/4.4.2/../../../../arm-elf/lib/thumb/thumb2\libc.a(lib_a-findfp.o)
 .v4_bx         0x0001f0b4        0x0 c:/apps/yagarto/bin/../lib/gcc/arm-elf/4.4.2/../../../../arm-elf/lib/thumb/thumb2\libc.a(lib_a-flags.o)
 .v4_bx         0x0001f0b4        0x0 c:/apps/yagarto/bin/../lib/gcc/arm-elf/4.4.2/../../../../arm-elf/lib/thumb/thumb2\libc.a(lib_a-freer.o)
 .v4_bx         0x0001f0b4        0x0 c:/apps/yagarto/bin/../lib/gcc/arm-elf/4.4.2/../../../../arm-elf/lib/thumb/thumb2\libc.a(lib_a-fvwrite.o)
 .v4_bx         0x0001f0b4        0x0 c:/apps/yagarto/bin/../lib/gcc/arm-elf/4.4.2/../../../../arm-elf/lib/thumb/thumb2\libc.a(lib_a-fwalk.o)
 .v4_bx         0x0001f0b4        0x0 c:/apps/yagarto/bin/../lib/gcc/arm-elf/4.4.2/../../../../arm-elf/lib/thumb/thumb2\libc.a(lib_a-isattyr.o)
 .v4_bx         0x0001f0b4        0x0 c:/apps/yagarto/bin/../lib/gcc/arm-elf/4.4.2/../../../../arm-elf/lib/thumb/thumb2\libc.a(lib_a-locale.o)
 .v4_bx         0x0001f0b4        0x0 c:/apps/yagarto/bin/../lib/gcc/arm-elf/4.4.2/../../../../arm-elf/lib/thumb/thumb2\libc.a(lib_a-lseekr.o)
 .v4_bx         0x0001f0b4        0x0 c:/apps/yagarto/bin/../lib/gcc/arm-elf/4.4.2/../../../../arm-elf/lib/thumb/thumb2\libc.a(lib_a-malloc.o)
 .v4_bx         0x0001f0b4        0x0 c:/apps/yagarto/bin/../lib/gcc/arm-elf/4.4.2/../../../../arm-elf/lib/thumb/thumb2\libc.a(lib_a-memchr.o)
 .v4_bx         0x0001f0b4        0x0 c:/apps/yagarto/bin/../lib/gcc/arm-elf/4.4.2/../../../../arm-elf/lib/thumb/thumb2\libc.a(lib_a-memcpy.o)
 .v4_bx         0x0001f0b4        0x0 c:/apps/yagarto/bin/../lib/gcc/arm-elf/4.4.2/../../../../arm-elf/lib/thumb/thumb2\libc.a(lib_a-memmove.o)
 .v4_bx         0x0001f0b4        0x0 c:/apps/yagarto/bin/../lib/gcc/arm-elf/4.4.2/../../../../arm-elf/lib/thumb/thumb2\libc.a(lib_a-mprec.o)
 .v4_bx         0x0001f0b4        0x0 c:/apps/yagarto/bin/../lib/gcc/arm-elf/4.4.2/../../../../arm-elf/lib/thumb/thumb2\libc.a(lib_a-readr.o)
 .v4_bx         0x0001f0b4        0x0 c:/apps/yagarto/bin/../lib/gcc/arm-elf/4.4.2/../../../../arm-elf/lib/thumb/thumb2\libc.a(lib_a-reallocr.o)
 .v4_bx         0x0001f0b4        0x0 c:/apps/yagarto/bin/../lib/gcc/arm-elf/4.4.2/../../../../arm-elf/lib/thumb/thumb2\libc.a(lib_a-s_isinfd.o)
 .v4_bx         0x0001f0b4        0x0 c:/apps/yagarto/bin/../lib/gcc/arm-elf/4.4.2/../../../../arm-elf/lib/thumb/thumb2\libc.a(lib_a-s_isnand.o)
 .v4_bx         0x0001f0b4        0x0 c:/apps/yagarto/bin/../lib/gcc/arm-elf/4.4.2/../../../../arm-elf/lib/thumb/thumb2\libc.a(lib_a-strlen.o)
 .v4_bx         0x0001f0b4        0x0 c:/apps/yagarto/bin/../lib/gcc/arm-elf/4.4.2/../../../../arm-elf/lib/thumb/thumb2\libc.a(lib_a-callocr.o)
 .v4_bx         0x0001f0b4        0x0 c:/apps/yagarto/bin/../lib/gcc/arm-elf/4.4.2/../../../../arm-elf/lib/thumb/thumb2\libc.a(lib_a-fclose.o)
 .v4_bx         0x0001f0b4        0x0 c:/apps/yagarto/bin/../lib/gcc/arm-elf/4.4.2/thumb/thumb2\libgcc.a(_udivsi3.o)
 .v4_bx         0x0001f0b4        0x0 c:/apps/yagarto/bin/../lib/gcc/arm-elf/4.4.2/thumb/thumb2\libgcc.a(_dvmd_tls.o)
 .v4_bx         0x0001f0b4        0x0 c:/apps/yagarto/bin/../lib/gcc/arm-elf/4.4.2/thumb/thumb2\libgcc.a(_arm_addsubdf3.o)
 .v4_bx         0x0001f0b4        0x0 c:/apps/yagarto/bin/../lib/gcc/arm-elf/4.4.2/thumb/thumb2\libgcc.a(_arm_muldivdf3.o)
 .v4_bx         0x0001f0b4        0x0 c:/apps/yagarto/bin/../lib/gcc/arm-elf/4.4.2/thumb/thumb2\libgcc.a(_arm_cmpdf2.o)
 .v4_bx         0x0001f0b4        0x0 c:/apps/yagarto/bin/../lib/gcc/arm-elf/4.4.2/thumb/thumb2\libgcc.a(_arm_fixdfsi.o)

.data           0x20000000      0x69c load address 0x0001f0b4
                0x20000000                _data = .
                [0x20000000]                PROVIDE (_data, _data)
 *(vtable)
 *(.data*)
 .data          0x20000000        0x0 ./lib/./STM32F10x_StdPeriph_Driver/src/misc.o
 .data          0x20000000        0x0 ./lib/./STM32F10x_StdPeriph_Driver/src/stm32f10x_dbgmcu.o
 .data          0x20000000        0x0 ./lib/./STM32F10x_StdPeriph_Driver/src/stm32f10x_flash.o
 .data          0x20000000        0x0 ./lib/./STM32F10x_StdPeriph_Driver/src/stm32f10x_gpio.o
 .data          0x20000000       0x14 ./lib/./STM32F10x_StdPeriph_Driver/src/stm32f10x_rcc.o
 .data          0x20000014        0x0 ./lib/./STM32F10x_StdPeriph_Driver/src/stm32f10x_sdio.o
 .data          0x20000014        0x0 ./lib/./STM32F10x_StdPeriph_Driver/src/stm32f10x_usart.o
 .data          0x20000014        0x0 ./lib/./STM32F10x_StdPeriph_Driver/src/stm32f10x_i2c.o
 .data          0x20000014        0x0 ./lib/./STM32F10x_StdPeriph_Driver/src/stm32f10x_dma.o
 .data          0x20000014        0x0 ./lib/./STM32F10x_StdPeriph_Driver/src/stm32f10x_adc.o
 .data          0x20000014        0x0 ./lib/./STM32F10x_StdPeriph_Driver/src/stm32f10x_dac.o
 .data          0x20000014        0x0 ./lib/./STM32F10x_StdPeriph_Driver/src/stm32f10x_tim.o
 .data          0x20000014        0x0 ./lib/./STM32F10x_StdPeriph_Driver/src/stm32f10x_fsmc.o
 .data          0x20000014        0x0 ./lib/./STM32F10x_StdPeriph_Driver/src/stm32f10x_exti.o
 .data          0x20000014        0x0 ./lib/./STM32F10x_StdPeriph_Driver/src/stm32f10x_bkp.o
 .data          0x20000014        0x0 ./lib/./STM32F10x_StdPeriph_Driver/src/stm32f10x_pwr.o
 .data          0x20000014        0x0 ./lib/./uC-CPU/Cortex-M3/GCC/cpu_c.o
 .data          0x20000014        0x0 ./lib/./uCOS-II/Ports/ARM-Cortex-M3/Generic/GCC/os_cpu_c.o
 .data          0x20000014       0x60 ./lib/./uCOS-II/Ports/ARM-Cortex-M3/Generic/GCC/os_dbg.o
                0x2000005c                OSTaskNameSize
                0x20000034                OSMboxEn
                0x20000044                OSQEn
                0x20000070                OSDataSize
                0x20000022                OSEventSize
                0x20000060                OSTaskStatStkSize
                0x2000004a                OSRdyTblSize
                0x2000002e                OSFlagMax
                0x20000068                OSTCBSize
                0x2000004e                OSStkWidth
                0x20000042                OSPtrSize
                0x20000024                OSEventTblSize
                0x20000046                OSQMax
                0x20000026                OSFlagEn
                0x2000006c                OSTimeTickHookEn
                0x20000030                OSFlagNameSize
                0x20000048                OSQSize
                0x20000032                OSLowestPrio
                0x20000020                OSEventEn
                0x20000056                OSTaskIdleStkSize
                0x2000006a                OSTicksPerSec
                0x2000006e                OSVersionNbr
                0x20000018                OSEndiannessTest
                0x20000028                OSFlagGrpSize
                0x2000001c                OSEventMax
                0x20000052                OSTaskCreateExtEn
                0x2000004c                OSSemEn
                0x2000005e                OSTaskStatEn
                0x20000038                OSMemMax
                0x20000014                OSDebugEn
                0x2000002a                OSFlagNodeSize
                0x2000005a                OSTaskMax
                0x20000054                OSTaskDelEn
                0x2000003a                OSMemNameSize
                0x20000066                OSTCBPrioTblMax
                0x20000062                OSTaskStatStkChkEn
                0x20000036                OSMemEn
                0x20000040                OSMutexEn
                0x2000003c                OSMemSize
                0x2000003e                OSMemTblSize
                0x20000058                OSTaskProfileEn
                0x2000001e                OSEventNameSize
                0x20000064                OSTaskSwHookEn
                0x2000002c                OSFlagWidth
                0x20000050                OSTaskCreateEn
 .data          0x20000074        0x0 ./lib/./uCOS-II/Source/os_core.o
 .data          0x20000074        0x0 ./lib/./uCOS-II/Source/os_flag.o
 .data          0x20000074        0x0 ./lib/./uCOS-II/Source/os_mbox.o
 .data          0x20000074        0x0 ./lib/./uCOS-II/Source/os_mem.o
 .data          0x20000074        0x0 ./lib/./uCOS-II/Source/os_mutex.o
 .data          0x20000074        0x0 ./lib/./uCOS-II/Source/os_q.o
 .data          0x20000074        0x0 ./lib/./uCOS-II/Source/os_sem.o
 .data          0x20000074        0x0 ./lib/./uCOS-II/Source/os_task.o
 .data          0x20000074        0x0 ./lib/./uCOS-II/Source/os_time.o
 .data          0x20000074        0x0 ./lib/./uCOS-II/Source/os_tmr.o
 .data          0x20000074        0x0 ./lib/./STM32_USB-FS-Device_Driver/src/usb_core.o
 .data          0x20000074        0x0 ./lib/./STM32_USB-FS-Device_Driver/src/usb_init.o
 .data          0x20000074        0x0 ./lib/./STM32_USB-FS-Device_Driver/src/usb_int.o
 .data          0x20000074        0x0 ./lib/./STM32_USB-FS-Device_Driver/src/usb_mem.o
 .data          0x20000074        0x0 ./lib/./STM32_USB-FS-Device_Driver/src/usb_regs.o
 .data          0x20000074        0x0 ./lib/./STM32_USB-FS-Device_Driver/src/usb_sil.o
 .data          0x20000074        0x0 ./src/application/app.o
 .data          0x20000074        0xc ./src/bsp/bsp.o
                0x2000007c                Status
                0x20000074                D_LED_PORT
                0x20000078                SWITCH_PORT
 .data          0x20000080        0x0 ./src/bsp/bsp_globals.o
 .data          0x20000080        0x0 ./src/bsp/bsp_utils.o
 .data          0x20000080        0x0 ./src/bsp/app_int.o
 .data          0x20000080        0x0 ./src/bsp/app_vect.o
 .data          0x20000080        0x0 ./src/bsp/stm32f10x_startup.o
 .data          0x20000080       0x18 ./src/bsp/stm32f10x_syscall.o
                0x20000080                device_table_list
 .data          0x20000098        0x8 ./src/bsp/sdcard.o
                0x2000009c                TransferError
 .data          0x200000a0       0x1c ./src/usb/usb_desc.o
                0x200000a0                Virtual_Com_Port_StringSerial
 .data          0x200000bc        0x0 ./src/usb/usb_endp.o
 .data          0x200000bc       0x38 ./src/usb/usb_istr.o
                0x200000d8                pEpInt_OUT
                0x200000bc                pEpInt_IN
 .data          0x200000f4       0x90 ./src/usb/usb_prop.o
                0x20000154                Device_Descriptor
                0x200000f4                linecoding
                0x20000100                Device_Property
                0x20000164                String_Descriptor
                0x20000130                User_Standard_Requests
                0x2000015c                Config_Descriptor
                0x200000fc                Device_Table
 .data          0x20000184        0x4 ./src/usb/usb_pwr.o
                0x20000184                fSuspendEnabled
 .data          0x20000188        0x0 ./src/usb/hw_config.o
 .data          0x20000188        0x0 ./src/sram/fsmc_sram.o
 .data          0x20000188        0x0 ./lib/./uC-CPU/Cortex-M3/GCC/cpu_a.o
 .data          0x20000188        0x0 ./lib/./uCOS-II/Ports/ARM-Cortex-M3/Generic/GCC/os_cpu_a.o
 .data          0x20000188        0x0 c:/apps/yagarto/bin/../lib/gcc/arm-elf/4.4.2/../../../../arm-elf/lib/thumb/thumb2\libc.a(lib_a-fopen.o)
 .data          0x20000188        0x0 c:/apps/yagarto/bin/../lib/gcc/arm-elf/4.4.2/../../../../arm-elf/lib/thumb/thumb2\libc.a(lib_a-fprintf.o)
 .data          0x20000188        0x0 c:/apps/yagarto/bin/../lib/gcc/arm-elf/4.4.2/../../../../arm-elf/lib/thumb/thumb2\libc.a(lib_a-fseek.o)
 .data          0x20000188        0x0 c:/apps/yagarto/bin/../lib/gcc/arm-elf/4.4.2/../../../../arm-elf/lib/thumb/thumb2\libc.a(lib_a-fstatr.o)
 .data          0x20000188        0x0 c:/apps/yagarto/bin/../lib/gcc/arm-elf/4.4.2/../../../../arm-elf/lib/thumb/thumb2\libc.a(lib_a-fwrite.o)
 .data          0x20000188       0xf4 c:/apps/yagarto/bin/../lib/gcc/arm-elf/4.4.2/../../../../arm-elf/lib/thumb/thumb2\libc.a(lib_a-impure.o)
                0x20000188                _impure_ptr
 .data          0x2000027c        0x0 c:/apps/yagarto/bin/../lib/gcc/arm-elf/4.4.2/../../../../arm-elf/lib/thumb/thumb2\libc.a(lib_a-makebuf.o)
 .data          0x2000027c      0x410 c:/apps/yagarto/bin/../lib/gcc/arm-elf/4.4.2/../../../../arm-elf/lib/thumb/thumb2\libc.a(lib_a-mallocr.o)
                0x20000684                __malloc_sbrk_base
                0x2000027c                __malloc_av_
                0x20000688                __malloc_trim_threshold
 .data          0x2000068c        0x0 c:/apps/yagarto/bin/../lib/gcc/arm-elf/4.4.2/../../../../arm-elf/lib/thumb/thumb2\libc.a(lib_a-memset.o)
 .data          0x2000068c        0x0 c:/apps/yagarto/bin/../lib/gcc/arm-elf/4.4.2/../../../../arm-elf/lib/thumb/thumb2\libc.a(lib_a-mlock.o)
 .data          0x2000068c        0x0 c:/apps/yagarto/bin/../lib/gcc/arm-elf/4.4.2/../../../../arm-elf/lib/thumb/thumb2\libc.a(lib_a-openr.o)
 .data          0x2000068c        0x0 c:/apps/yagarto/bin/../lib/gcc/arm-elf/4.4.2/../../../../arm-elf/lib/thumb/thumb2\libc.a(lib_a-rand.o)
 .data          0x2000068c        0x0 c:/apps/yagarto/bin/../lib/gcc/arm-elf/4.4.2/../../../../arm-elf/lib/thumb/thumb2\libc.a(lib_a-reent.o)
 .data          0x2000068c        0x0 c:/apps/yagarto/bin/../lib/gcc/arm-elf/4.4.2/../../../../arm-elf/lib/thumb/thumb2\libc.a(lib_a-refill.o)
 .data          0x2000068c        0x0 c:/apps/yagarto/bin/../lib/gcc/arm-elf/4.4.2/../../../../arm-elf/lib/thumb/thumb2\libc.a(lib_a-sbrkr.o)
 .data          0x2000068c        0x0 c:/apps/yagarto/bin/../lib/gcc/arm-elf/4.4.2/../../../../arm-elf/lib/thumb/thumb2\libc.a(lib_a-stdio.o)
 .data          0x2000068c        0x0 c:/apps/yagarto/bin/../lib/gcc/arm-elf/4.4.2/../../../../arm-elf/lib/thumb/thumb2\libc.a(lib_a-strcmp.o)
 .data          0x2000068c        0x0 c:/apps/yagarto/bin/../lib/gcc/arm-elf/4.4.2/../../../../arm-elf/lib/thumb/thumb2\libc.a(lib_a-vfprintf.o)
 .data          0x2000068c        0x0 c:/apps/yagarto/bin/../lib/gcc/arm-elf/4.4.2/../../../../arm-elf/lib/thumb/thumb2\libc.a(lib_a-writer.o)
 .data          0x2000068c        0x0 c:/apps/yagarto/bin/../lib/gcc/arm-elf/4.4.2/../../../../arm-elf/lib/thumb/thumb2\libc.a(lib_a-wsetup.o)
 .data          0x2000068c        0x0 c:/apps/yagarto/bin/../lib/gcc/arm-elf/4.4.2/../../../../arm-elf/lib/thumb/thumb2\libc.a(lib_a-closer.o)
 .data          0x2000068c        0x0 c:/apps/yagarto/bin/../lib/gcc/arm-elf/4.4.2/../../../../arm-elf/lib/thumb/thumb2\libc.a(lib_a-dtoa.o)
 .data          0x2000068c        0x0 c:/apps/yagarto/bin/../lib/gcc/arm-elf/4.4.2/../../../../arm-elf/lib/thumb/thumb2\libc.a(lib_a-fflush.o)
 .data          0x2000068c        0x0 c:/apps/yagarto/bin/../lib/gcc/arm-elf/4.4.2/../../../../arm-elf/lib/thumb/thumb2\libc.a(lib_a-findfp.o)
 .data          0x2000068c        0x0 c:/apps/yagarto/bin/../lib/gcc/arm-elf/4.4.2/../../../../arm-elf/lib/thumb/thumb2\libc.a(lib_a-flags.o)
 .data          0x2000068c        0x0 c:/apps/yagarto/bin/../lib/gcc/arm-elf/4.4.2/../../../../arm-elf/lib/thumb/thumb2\libc.a(lib_a-freer.o)
 .data          0x2000068c        0x0 c:/apps/yagarto/bin/../lib/gcc/arm-elf/4.4.2/../../../../arm-elf/lib/thumb/thumb2\libc.a(lib_a-fvwrite.o)
 .data          0x2000068c        0x0 c:/apps/yagarto/bin/../lib/gcc/arm-elf/4.4.2/../../../../arm-elf/lib/thumb/thumb2\libc.a(lib_a-fwalk.o)
 .data          0x2000068c        0x0 c:/apps/yagarto/bin/../lib/gcc/arm-elf/4.4.2/../../../../arm-elf/lib/thumb/thumb2\libc.a(lib_a-isattyr.o)
 .data          0x2000068c       0x10 c:/apps/yagarto/bin/../lib/gcc/arm-elf/4.4.2/../../../../arm-elf/lib/thumb/thumb2\libc.a(lib_a-locale.o)
                0x2000068c                __mb_cur_max
                0x20000690                __lc_ctype
 .data          0x2000069c        0x0 c:/apps/yagarto/bin/../lib/gcc/arm-elf/4.4.2/../../../../arm-elf/lib/thumb/thumb2\libc.a(lib_a-lseekr.o)
 .data          0x2000069c        0x0 c:/apps/yagarto/bin/../lib/gcc/arm-elf/4.4.2/../../../../arm-elf/lib/thumb/thumb2\libc.a(lib_a-malloc.o)
 .data          0x2000069c        0x0 c:/apps/yagarto/bin/../lib/gcc/arm-elf/4.4.2/../../../../arm-elf/lib/thumb/thumb2\libc.a(lib_a-memchr.o)
 .data          0x2000069c        0x0 c:/apps/yagarto/bin/../lib/gcc/arm-elf/4.4.2/../../../../arm-elf/lib/thumb/thumb2\libc.a(lib_a-memcpy.o)
 .data          0x2000069c        0x0 c:/apps/yagarto/bin/../lib/gcc/arm-elf/4.4.2/../../../../arm-elf/lib/thumb/thumb2\libc.a(lib_a-memmove.o)
 .data          0x2000069c        0x0 c:/apps/yagarto/bin/../lib/gcc/arm-elf/4.4.2/../../../../arm-elf/lib/thumb/thumb2\libc.a(lib_a-mprec.o)
 .data          0x2000069c        0x0 c:/apps/yagarto/bin/../lib/gcc/arm-elf/4.4.2/../../../../arm-elf/lib/thumb/thumb2\libc.a(lib_a-readr.o)
 .data          0x2000069c        0x0 c:/apps/yagarto/bin/../lib/gcc/arm-elf/4.4.2/../../../../arm-elf/lib/thumb/thumb2\libc.a(lib_a-reallocr.o)
 .data          0x2000069c        0x0 c:/apps/yagarto/bin/../lib/gcc/arm-elf/4.4.2/../../../../arm-elf/lib/thumb/thumb2\libc.a(lib_a-s_isinfd.o)
 .data          0x2000069c        0x0 c:/apps/yagarto/bin/../lib/gcc/arm-elf/4.4.2/../../../../arm-elf/lib/thumb/thumb2\libc.a(lib_a-s_isnand.o)
 .data          0x2000069c        0x0 c:/apps/yagarto/bin/../lib/gcc/arm-elf/4.4.2/../../../../arm-elf/lib/thumb/thumb2\libc.a(lib_a-strlen.o)
 .data          0x2000069c        0x0 c:/apps/yagarto/bin/../lib/gcc/arm-elf/4.4.2/../../../../arm-elf/lib/thumb/thumb2\libc.a(lib_a-callocr.o)
 .data          0x2000069c        0x0 c:/apps/yagarto/bin/../lib/gcc/arm-elf/4.4.2/../../../../arm-elf/lib/thumb/thumb2\libc.a(lib_a-fclose.o)
 .data          0x2000069c        0x0 c:/apps/yagarto/bin/../lib/gcc/arm-elf/4.4.2/thumb/thumb2\libgcc.a(_udivsi3.o)
 .data          0x2000069c        0x0 c:/apps/yagarto/bin/../lib/gcc/arm-elf/4.4.2/thumb/thumb2\libgcc.a(_dvmd_tls.o)
 .data          0x2000069c        0x0 c:/apps/yagarto/bin/../lib/gcc/arm-elf/4.4.2/thumb/thumb2\libgcc.a(_arm_addsubdf3.o)
 .data          0x2000069c        0x0 c:/apps/yagarto/bin/../lib/gcc/arm-elf/4.4.2/thumb/thumb2\libgcc.a(_arm_muldivdf3.o)
 .data          0x2000069c        0x0 c:/apps/yagarto/bin/../lib/gcc/arm-elf/4.4.2/thumb/thumb2\libgcc.a(_arm_cmpdf2.o)
 .data          0x2000069c        0x0 c:/apps/yagarto/bin/../lib/gcc/arm-elf/4.4.2/thumb/thumb2\libgcc.a(_arm_fixdfsi.o)
                0x2000069c                _edata = .
                [0x2000069c]                PROVIDE (_edata, _edata)

/DISCARD/
 *(.eh_*)

.bss            0x2000069c     0x6740 load address 0x0001f750
                0x2000069c                . = ALIGN (0x4)
                0x2000069c                _bss = .
                [0x2000069c]                PROVIDE (_bss, _bss)
 *(.bss*)
 .bss           0x2000069c        0x0 ./lib/./STM32F10x_StdPeriph_Driver/src/misc.o
 .bss           0x2000069c        0x0 ./lib/./STM32F10x_StdPeriph_Driver/src/stm32f10x_dbgmcu.o
 .bss           0x2000069c        0x0 ./lib/./STM32F10x_StdPeriph_Driver/src/stm32f10x_flash.o
 .bss           0x2000069c        0x0 ./lib/./STM32F10x_StdPeriph_Driver/src/stm32f10x_gpio.o
 .bss           0x2000069c        0x0 ./lib/./STM32F10x_StdPeriph_Driver/src/stm32f10x_rcc.o
 .bss           0x2000069c        0x0 ./lib/./STM32F10x_StdPeriph_Driver/src/stm32f10x_sdio.o
 .bss           0x2000069c        0x0 ./lib/./STM32F10x_StdPeriph_Driver/src/stm32f10x_usart.o
 .bss           0x2000069c        0x0 ./lib/./STM32F10x_StdPeriph_Driver/src/stm32f10x_i2c.o
 .bss           0x2000069c        0x0 ./lib/./STM32F10x_StdPeriph_Driver/src/stm32f10x_dma.o
 .bss           0x2000069c        0x0 ./lib/./STM32F10x_StdPeriph_Driver/src/stm32f10x_adc.o
 .bss           0x2000069c        0x0 ./lib/./STM32F10x_StdPeriph_Driver/src/stm32f10x_dac.o
 .bss           0x2000069c        0x0 ./lib/./STM32F10x_StdPeriph_Driver/src/stm32f10x_tim.o
 .bss           0x2000069c        0x0 ./lib/./STM32F10x_StdPeriph_Driver/src/stm32f10x_fsmc.o
 .bss           0x2000069c        0x0 ./lib/./STM32F10x_StdPeriph_Driver/src/stm32f10x_exti.o
 .bss           0x2000069c        0x0 ./lib/./STM32F10x_StdPeriph_Driver/src/stm32f10x_bkp.o
 .bss           0x2000069c        0x0 ./lib/./STM32F10x_StdPeriph_Driver/src/stm32f10x_pwr.o
 .bss           0x2000069c        0x0 ./lib/./uC-CPU/Cortex-M3/GCC/cpu_c.o
 .bss           0x2000069c        0x2 ./lib/./uCOS-II/Ports/ARM-Cortex-M3/Generic/GCC/os_cpu_c.o
 .bss           0x2000069e        0x0 ./lib/./uCOS-II/Ports/ARM-Cortex-M3/Generic/GCC/os_dbg.o
 .bss           0x2000069e        0x0 ./lib/./uCOS-II/Source/os_core.o
 .bss           0x2000069e        0x0 ./lib/./uCOS-II/Source/os_flag.o
 .bss           0x2000069e        0x0 ./lib/./uCOS-II/Source/os_mbox.o
 .bss           0x2000069e        0x0 ./lib/./uCOS-II/Source/os_mem.o
 .bss           0x2000069e        0x0 ./lib/./uCOS-II/Source/os_mutex.o
 .bss           0x2000069e        0x0 ./lib/./uCOS-II/Source/os_q.o
 .bss           0x2000069e        0x0 ./lib/./uCOS-II/Source/os_sem.o
 .bss           0x2000069e        0x0 ./lib/./uCOS-II/Source/os_task.o
 .bss           0x2000069e        0x0 ./lib/./uCOS-II/Source/os_time.o
 .bss           0x2000069e        0x0 ./lib/./uCOS-II/Source/os_tmr.o
 *fill*         0x2000069e        0x2 00
 .bss           0x200006a0        0x4 ./lib/./STM32_USB-FS-Device_Driver/src/usb_core.o
                0x200006a0                Data_Mul_MaxPacketSize
 .bss           0x200006a4        0x0 ./lib/./STM32_USB-FS-Device_Driver/src/usb_init.o
 .bss           0x200006a4        0x0 ./lib/./STM32_USB-FS-Device_Driver/src/usb_int.o
 .bss           0x200006a4        0x0 ./lib/./STM32_USB-FS-Device_Driver/src/usb_mem.o
 .bss           0x200006a4        0x0 ./lib/./STM32_USB-FS-Device_Driver/src/usb_regs.o
 .bss           0x200006a4        0x0 ./lib/./STM32_USB-FS-Device_Driver/src/usb_sil.o
 .bss           0x200006a4      0x320 ./src/application/app.o
 .bss           0x200009c4        0x0 ./src/bsp/bsp.o
 .bss           0x200009c4       0x10 ./src/bsp/bsp_globals.o
                0x200009c7                SW3_STATE
                0x200009d0                count_out
                0x200009c9                SW5_STATE
                0x200009c4                SW0_STATE
                0x200009c6                SW2_STATE
                0x200009cd                USART1_CNT_IN
                0x200009c8                SW4_STATE
                0x200009ca                SW6_STATE
                0x200009cb                SW7_STATE
                0x200009cc                JOY_STATE
                0x200009c5                SW1_STATE
 .bss           0x200009d4        0x0 ./src/bsp/bsp_utils.o
 .bss           0x200009d4        0x0 ./src/bsp/app_int.o
 .bss           0x200009d4        0x0 ./src/bsp/app_vect.o
 .bss           0x200009d4        0x0 ./src/bsp/stm32f10x_startup.o
 .bss           0x200009d4        0x4 ./src/bsp/stm32f10x_syscall.o
 .bss           0x200009d8       0x38 ./src/bsp/sdcard.o
                0x20000a08                TransferEnd
                0x20000a0c                NumberOfBytes
 .bss           0x20000a10        0x0 ./src/usb/usb_desc.o
 .bss           0x20000a10        0x4 ./src/usb/usb_endp.o
                0x20000a10                count_in
 .bss           0x20000a14        0x1 ./src/usb/usb_istr.o
                0x20000a14                bIntPackSOF
 .bss           0x20000a15        0x1 ./src/usb/usb_prop.o
                0x20000a15                Request
 *fill*         0x20000a16        0x2 00
 .bss           0x20000a18        0x4 ./src/usb/usb_pwr.o
                0x20000a18                bDeviceState
 .bss           0x20000a1c        0x0 ./src/usb/hw_config.o
 .bss           0x20000a1c        0x0 ./src/sram/fsmc_sram.o
 .bss           0x20000a1c        0x0 ./lib/./uC-CPU/Cortex-M3/GCC/cpu_a.o
 .bss           0x20000a1c        0x0 ./lib/./uCOS-II/Ports/ARM-Cortex-M3/Generic/GCC/os_cpu_a.o
 .bss           0x20000a1c        0x0 c:/apps/yagarto/bin/../lib/gcc/arm-elf/4.4.2/../../../../arm-elf/lib/thumb/thumb2\libc.a(lib_a-fopen.o)
 .bss           0x20000a1c        0x0 c:/apps/yagarto/bin/../lib/gcc/arm-elf/4.4.2/../../../../arm-elf/lib/thumb/thumb2\libc.a(lib_a-fprintf.o)
 .bss           0x20000a1c        0x0 c:/apps/yagarto/bin/../lib/gcc/arm-elf/4.4.2/../../../../arm-elf/lib/thumb/thumb2\libc.a(lib_a-fseek.o)
 .bss           0x20000a1c        0x0 c:/apps/yagarto/bin/../lib/gcc/arm-elf/4.4.2/../../../../arm-elf/lib/thumb/thumb2\libc.a(lib_a-fstatr.o)
 .bss           0x20000a1c        0x0 c:/apps/yagarto/bin/../lib/gcc/arm-elf/4.4.2/../../../../arm-elf/lib/thumb/thumb2\libc.a(lib_a-fwrite.o)
 .bss           0x20000a1c        0x0 c:/apps/yagarto/bin/../lib/gcc/arm-elf/4.4.2/../../../../arm-elf/lib/thumb/thumb2\libc.a(lib_a-impure.o)
 .bss           0x20000a1c        0x0 c:/apps/yagarto/bin/../lib/gcc/arm-elf/4.4.2/../../../../arm-elf/lib/thumb/thumb2\libc.a(lib_a-makebuf.o)
 .bss           0x20000a1c       0x34 c:/apps/yagarto/bin/../lib/gcc/arm-elf/4.4.2/../../../../arm-elf/lib/thumb/thumb2\libc.a(lib_a-mallocr.o)
                0x20000a1c                __malloc_top_pad
                0x20000a48                __malloc_max_sbrked_mem
                0x20000a20                __malloc_current_mallinfo
                0x20000a4c                __malloc_max_total_mem
 .bss           0x20000a50        0x0 c:/apps/yagarto/bin/../lib/gcc/arm-elf/4.4.2/../../../../arm-elf/lib/thumb/thumb2\libc.a(lib_a-memset.o)
 .bss           0x20000a50        0x0 c:/apps/yagarto/bin/../lib/gcc/arm-elf/4.4.2/../../../../arm-elf/lib/thumb/thumb2\libc.a(lib_a-mlock.o)
 .bss           0x20000a50        0x0 c:/apps/yagarto/bin/../lib/gcc/arm-elf/4.4.2/../../../../arm-elf/lib/thumb/thumb2\libc.a(lib_a-openr.o)
 .bss           0x20000a50        0x0 c:/apps/yagarto/bin/../lib/gcc/arm-elf/4.4.2/../../../../arm-elf/lib/thumb/thumb2\libc.a(lib_a-rand.o)
 .bss           0x20000a50        0x0 c:/apps/yagarto/bin/../lib/gcc/arm-elf/4.4.2/../../../../arm-elf/lib/thumb/thumb2\libc.a(lib_a-reent.o)
 .bss           0x20000a50        0x0 c:/apps/yagarto/bin/../lib/gcc/arm-elf/4.4.2/../../../../arm-elf/lib/thumb/thumb2\libc.a(lib_a-refill.o)
 .bss           0x20000a50        0x0 c:/apps/yagarto/bin/../lib/gcc/arm-elf/4.4.2/../../../../arm-elf/lib/thumb/thumb2\libc.a(lib_a-sbrkr.o)
 .bss           0x20000a50        0x0 c:/apps/yagarto/bin/../lib/gcc/arm-elf/4.4.2/../../../../arm-elf/lib/thumb/thumb2\libc.a(lib_a-stdio.o)
 .bss           0x20000a50        0x0 c:/apps/yagarto/bin/../lib/gcc/arm-elf/4.4.2/../../../../arm-elf/lib/thumb/thumb2\libc.a(lib_a-strcmp.o)
 .bss           0x20000a50        0x0 c:/apps/yagarto/bin/../lib/gcc/arm-elf/4.4.2/../../../../arm-elf/lib/thumb/thumb2\libc.a(lib_a-vfprintf.o)
 .bss           0x20000a50        0x0 c:/apps/yagarto/bin/../lib/gcc/arm-elf/4.4.2/../../../../arm-elf/lib/thumb/thumb2\libc.a(lib_a-writer.o)
 .bss           0x20000a50        0x0 c:/apps/yagarto/bin/../lib/gcc/arm-elf/4.4.2/../../../../arm-elf/lib/thumb/thumb2\libc.a(lib_a-wsetup.o)
 .bss           0x20000a50        0x0 c:/apps/yagarto/bin/../lib/gcc/arm-elf/4.4.2/../../../../arm-elf/lib/thumb/thumb2\libc.a(lib_a-closer.o)
 .bss           0x20000a50        0x0 c:/apps/yagarto/bin/../lib/gcc/arm-elf/4.4.2/../../../../arm-elf/lib/thumb/thumb2\libc.a(lib_a-dtoa.o)
 .bss           0x20000a50        0x0 c:/apps/yagarto/bin/../lib/gcc/arm-elf/4.4.2/../../../../arm-elf/lib/thumb/thumb2\libc.a(lib_a-fflush.o)
 .bss           0x20000a50        0x0 c:/apps/yagarto/bin/../lib/gcc/arm-elf/4.4.2/../../../../arm-elf/lib/thumb/thumb2\libc.a(lib_a-findfp.o)
 .bss           0x20000a50        0x0 c:/apps/yagarto/bin/../lib/gcc/arm-elf/4.4.2/../../../../arm-elf/lib/thumb/thumb2\libc.a(lib_a-flags.o)
 .bss           0x20000a50        0x0 c:/apps/yagarto/bin/../lib/gcc/arm-elf/4.4.2/../../../../arm-elf/lib/thumb/thumb2\libc.a(lib_a-freer.o)
 .bss           0x20000a50        0x0 c:/apps/yagarto/bin/../lib/gcc/arm-elf/4.4.2/../../../../arm-elf/lib/thumb/thumb2\libc.a(lib_a-fvwrite.o)
 .bss           0x20000a50        0x0 c:/apps/yagarto/bin/../lib/gcc/arm-elf/4.4.2/../../../../arm-elf/lib/thumb/thumb2\libc.a(lib_a-fwalk.o)
 .bss           0x20000a50        0x0 c:/apps/yagarto/bin/../lib/gcc/arm-elf/4.4.2/../../../../arm-elf/lib/thumb/thumb2\libc.a(lib_a-isattyr.o)
 .bss           0x20000a50        0xc c:/apps/yagarto/bin/../lib/gcc/arm-elf/4.4.2/../../../../arm-elf/lib/thumb/thumb2\libc.a(lib_a-locale.o)
                0x20000a50                __nlocale_changed
                0x20000a54                __mlocale_changed
                0x20000a58                _PathLocale
 .bss           0x20000a5c        0x0 c:/apps/yagarto/bin/../lib/gcc/arm-elf/4.4.2/../../../../arm-elf/lib/thumb/thumb2\libc.a(lib_a-lseekr.o)
 .bss           0x20000a5c        0x0 c:/apps/yagarto/bin/../lib/gcc/arm-elf/4.4.2/../../../../arm-elf/lib/thumb/thumb2\libc.a(lib_a-malloc.o)
 .bss           0x20000a5c        0x0 c:/apps/yagarto/bin/../lib/gcc/arm-elf/4.4.2/../../../../arm-elf/lib/thumb/thumb2\libc.a(lib_a-memchr.o)
 .bss           0x20000a5c        0x0 c:/apps/yagarto/bin/../lib/gcc/arm-elf/4.4.2/../../../../arm-elf/lib/thumb/thumb2\libc.a(lib_a-memcpy.o)
 .bss           0x20000a5c        0x0 c:/apps/yagarto/bin/../lib/gcc/arm-elf/4.4.2/../../../../arm-elf/lib/thumb/thumb2\libc.a(lib_a-memmove.o)
 .bss           0x20000a5c        0x0 c:/apps/yagarto/bin/../lib/gcc/arm-elf/4.4.2/../../../../arm-elf/lib/thumb/thumb2\libc.a(lib_a-mprec.o)
 .bss           0x20000a5c        0x0 c:/apps/yagarto/bin/../lib/gcc/arm-elf/4.4.2/../../../../arm-elf/lib/thumb/thumb2\libc.a(lib_a-readr.o)
 .bss           0x20000a5c        0x0 c:/apps/yagarto/bin/../lib/gcc/arm-elf/4.4.2/../../../../arm-elf/lib/thumb/thumb2\libc.a(lib_a-reallocr.o)
 .bss           0x20000a5c        0x0 c:/apps/yagarto/bin/../lib/gcc/arm-elf/4.4.2/../../../../arm-elf/lib/thumb/thumb2\libc.a(lib_a-s_isinfd.o)
 .bss           0x20000a5c        0x0 c:/apps/yagarto/bin/../lib/gcc/arm-elf/4.4.2/../../../../arm-elf/lib/thumb/thumb2\libc.a(lib_a-s_isnand.o)
 .bss           0x20000a5c        0x0 c:/apps/yagarto/bin/../lib/gcc/arm-elf/4.4.2/../../../../arm-elf/lib/thumb/thumb2\libc.a(lib_a-strlen.o)
 .bss           0x20000a5c        0x0 c:/apps/yagarto/bin/../lib/gcc/arm-elf/4.4.2/../../../../arm-elf/lib/thumb/thumb2\libc.a(lib_a-callocr.o)
 .bss           0x20000a5c        0x0 c:/apps/yagarto/bin/../lib/gcc/arm-elf/4.4.2/../../../../arm-elf/lib/thumb/thumb2\libc.a(lib_a-fclose.o)
 .bss           0x20000a5c        0x0 c:/apps/yagarto/bin/../lib/gcc/arm-elf/4.4.2/thumb/thumb2\libgcc.a(_udivsi3.o)
 .bss           0x20000a5c        0x0 c:/apps/yagarto/bin/../lib/gcc/arm-elf/4.4.2/thumb/thumb2\libgcc.a(_dvmd_tls.o)
 .bss           0x20000a5c        0x0 c:/apps/yagarto/bin/../lib/gcc/arm-elf/4.4.2/thumb/thumb2\libgcc.a(_arm_addsubdf3.o)
 .bss           0x20000a5c        0x0 c:/apps/yagarto/bin/../lib/gcc/arm-elf/4.4.2/thumb/thumb2\libgcc.a(_arm_muldivdf3.o)
 .bss           0x20000a5c        0x0 c:/apps/yagarto/bin/../lib/gcc/arm-elf/4.4.2/thumb/thumb2\libgcc.a(_arm_cmpdf2.o)
 .bss           0x20000a5c        0x0 c:/apps/yagarto/bin/../lib/gcc/arm-elf/4.4.2/thumb/thumb2\libgcc.a(_arm_fixdfsi.o)
 *(COMMON)
 COMMON         0x20000a5c     0x15e4 ./lib/./uCOS-II/Source/os_core.o
                0x20000a5c                OSTmrFreeList
                0x20000a60                OSTmrWheelTbl
                0x20000aa0                OSLockNesting
                0x20000aa4                OSTmrSemSignal
                0x20000aa8                OSRunning
                0x20000aac                OSIdleCtr
                0x20000ab0                OSTmrUsed
                0x20000ab2                OSPrioHighRdy
                0x20000ab4                OSFlagTbl
                0x20000b40                OSTmrTbl
                0x20000e80                OSPrioCur
                0x20000e84                OSTCBList
                0x20000e88                OSMemTbl
                0x20000f3c                OSTickStepState
                0x20000f40                OSTaskStatStk
                0x20001140                OSCtxSwCtr
                0x20001144                OSTmrFree
                0x20001148                OSIdleCtrMax
                0x2000114c                OSTCBFreeList
                0x20001150                OSCPUUsage
                0x20001151                OSTaskCtr
                0x20001154                OSMemFreeList
                0x20001158                OSQTbl
                0x200011b8                OSTCBHighRdy
                0x200011bc                OSQFreeList
                0x200011c0                OSRdyGrp
                0x200011c4                OSRdyTbl
                0x200011cc                OSTmrTaskStk
                0x200013cc                OSEventFreeList
                0x200013d0                OSIntNesting
                0x200013d4                OSTCBCur
                0x200013d8                OSTmrTime
                0x200013dc                OSTime
                0x200013e0                OSTmrSem
                0x200013e4                OSTaskIdleStk
                0x200015e4                OSEventTbl
                0x2000174c                OSTCBTbl
                0x20001f34                OSFlagFreeList
                0x20001f38                OSStatRdy
                0x20001f3c                OSTCBPrioTbl
                0x2000203c                OSIdleCtrRun
 COMMON         0x20002040        0x4 ./lib/./STM32_USB-FS-Device_Driver/src/usb_core.o
                0x20002040                StatusInfo
 COMMON         0x20002044       0x3a ./lib/./STM32_USB-FS-Device_Driver/src/usb_init.o
                0x20002044                SaveState
                0x20002048                pProperty
                0x2000204c                EPindex
                0x20002050                Device_Info
                0x20002074                pUser_Standard_Requests
                0x20002078                pInformation
                0x2000207c                wInterrupt_Mask
 COMMON         0x2000207e        0x4 ./lib/./STM32_USB-FS-Device_Driver/src/usb_int.o
                0x2000207e                SaveRState
                0x20002080                SaveTState
 *fill*         0x20002082        0x2 00
 COMMON         0x20002084        0x4 ./src/application/app.o
                0x20002084                fp_usart1
 COMMON         0x20002088      0xc50 ./src/bsp/bsp.o
                0x20002088                Buffer_Block_Tx
                0x20002288                Buffer_MultiBlock_Rx
                0x20002688                SDCardInfo
                0x200026d8                Buffer_Block_Rx
                0x200028d8                Buffer_MultiBlock_Tx
 COMMON         0x20002cd8       0x54 ./src/bsp/bsp_globals.o
                0x20002cd8                buffer_out
                0x20002d18                USART1_BUFFER_IN
 COMMON         0x20002d2c       0x4c ./src/bsp/sdcard.o
                0x20002d2c                SDIO_CmdInitStructure
                0x20002d40                DestBuffer
                0x20002d44                SDIO_InitStructure
                0x20002d5c                SDIO_DataInitStructure
                0x20002d74                SrcBuffer
 COMMON         0x20002d78        0x2 ./src/usb/usb_istr.o
                0x20002d78                wIstr
 *fill*         0x20002d7a        0x2 00
 COMMON         0x20002d7c        0x8 ./src/usb/usb_pwr.o
                0x20002d7c                ResumeS
 COMMON         0x20002d84       0x54 ./src/usb/hw_config.o
                0x20002d84                HSEStartUpStatus
                0x20002d88                buffer_in
                0x20002dc8                USART_InitStructure
 COMMON         0x20002dd8        0x4 c:/apps/yagarto/bin/../lib/gcc/arm-elf/4.4.2/../../../../arm-elf/lib/thumb/thumb2\libc.a(lib_a-reent.o)
                0x20002dd8                errno
                0x20002ddc                _ebss = .
                [0x20002ddc]                PROVIDE (_ebss, _ebss)
                0x20002ddc                . = ALIGN (0x4)
                0x20002ddc                _end = .
                [0x20002ddc]                PROVIDE (_end, _end)
                0x20002ddc                _heap = .
                [0x20002ddc]                PROVIDE (_heap, _heap)
                0x20006ddc                . = (. + STACK_SIZE)
 *fill*         0x20002ddc     0x4000 00
                0x20006ddc                _main_stack = .
                [0x20006ddc]                PROVIDE (_main_stack, _main_stack)
                0x2000fffc                _esram = 0x2000fffc
                [0x2000fffc]                PROVIDE (_esram, _esram)
OUTPUT(out/NTRT.elf elf32-littlearm)

.debug_abbrev   0x00000000     0x82b7
 .debug_abbrev  0x00000000      0x117 ./lib/./STM32F10x_StdPeriph_Driver/src/misc.o
 .debug_abbrev  0x00000117       0xd0 ./lib/./STM32F10x_StdPeriph_Driver/src/stm32f10x_dbgmcu.o
 .debug_abbrev  0x000001e7      0x195 ./lib/./STM32F10x_StdPeriph_Driver/src/stm32f10x_flash.o
 .debug_abbrev  0x0000037c      0x1a4 ./lib/./STM32F10x_StdPeriph_Driver/src/stm32f10x_gpio.o
 .debug_abbrev  0x00000520      0x189 ./lib/./STM32F10x_StdPeriph_Driver/src/stm32f10x_rcc.o
 .debug_abbrev  0x000006a9      0x1af ./lib/./STM32F10x_StdPeriph_Driver/src/stm32f10x_sdio.o
 .debug_abbrev  0x00000858      0x15b ./lib/./STM32F10x_StdPeriph_Driver/src/stm32f10x_usart.o
 .debug_abbrev  0x000009b3      0x16a ./lib/./STM32F10x_StdPeriph_Driver/src/stm32f10x_i2c.o
 .debug_abbrev  0x00000b1d      0x15b ./lib/./STM32F10x_StdPeriph_Driver/src/stm32f10x_dma.o
 .debug_abbrev  0x00000c78      0x181 ./lib/./STM32F10x_StdPeriph_Driver/src/stm32f10x_adc.o
 .debug_abbrev  0x00000df9      0x15f ./lib/./STM32F10x_StdPeriph_Driver/src/stm32f10x_dac.o
 .debug_abbrev  0x00000f58      0x16e ./lib/./STM32F10x_StdPeriph_Driver/src/stm32f10x_tim.o
 .debug_abbrev  0x000010c6      0x173 ./lib/./STM32F10x_StdPeriph_Driver/src/stm32f10x_fsmc.o
 .debug_abbrev  0x00001239      0x157 ./lib/./STM32F10x_StdPeriph_Driver/src/stm32f10x_exti.o
 .debug_abbrev  0x00001390      0x14e ./lib/./STM32F10x_StdPeriph_Driver/src/stm32f10x_bkp.o
 .debug_abbrev  0x000014de      0x138 ./lib/./STM32F10x_StdPeriph_Driver/src/stm32f10x_pwr.o
 .debug_abbrev  0x00001616       0xe5 ./lib/./uC-CPU/Cortex-M3/GCC/cpu_c.o
 .debug_abbrev  0x000016fb      0x179 ./lib/./uCOS-II/Ports/ARM-Cortex-M3/Generic/GCC/os_cpu_c.o
 .debug_abbrev  0x00001874       0xd2 ./lib/./uCOS-II/Ports/ARM-Cortex-M3/Generic/GCC/os_dbg.o
 .debug_abbrev  0x00001946      0x1ea ./lib/./uCOS-II/Source/os_core.o
 .debug_abbrev  0x00001b30      0x16d ./lib/./uCOS-II/Source/os_flag.o
 .debug_abbrev  0x00001c9d      0x139 ./lib/./uCOS-II/Source/os_mbox.o
 .debug_abbrev  0x00001dd6      0x158 ./lib/./uCOS-II/Source/os_mem.o
 .debug_abbrev  0x00001f2e      0x165 ./lib/./uCOS-II/Source/os_mutex.o
 .debug_abbrev  0x00002093      0x15f ./lib/./uCOS-II/Source/os_q.o
 .debug_abbrev  0x000021f2      0x15f ./lib/./uCOS-II/Source/os_sem.o
 .debug_abbrev  0x00002351      0x160 ./lib/./uCOS-II/Source/os_task.o
 .debug_abbrev  0x000024b1      0x146 ./lib/./uCOS-II/Source/os_time.o
 .debug_abbrev  0x000025f7      0x1ae ./lib/./uCOS-II/Source/os_tmr.o
 .debug_abbrev  0x000027a5      0x268 ./lib/./STM32_USB-FS-Device_Driver/src/usb_core.o
 .debug_abbrev  0x00002a0d      0x107 ./lib/./STM32_USB-FS-Device_Driver/src/usb_init.o
 .debug_abbrev  0x00002b14       0xd6 ./lib/./STM32_USB-FS-Device_Driver/src/usb_int.o
 .debug_abbrev  0x00002bea       0x8d ./lib/./STM32_USB-FS-Device_Driver/src/usb_mem.o
 .debug_abbrev  0x00002c77      0x14e ./lib/./STM32_USB-FS-Device_Driver/src/usb_regs.o
 .debug_abbrev  0x00002dc5       0xa8 ./lib/./STM32_USB-FS-Device_Driver/src/usb_sil.o
 .debug_abbrev  0x00002e6d      0x1a5 ./src/application/app.o
 .debug_abbrev  0x00003012      0x235 ./src/bsp/bsp.o
 .debug_abbrev  0x00003247       0x63 ./src/bsp/bsp_globals.o
 .debug_abbrev  0x000032aa       0xae ./src/bsp/bsp_utils.o
 .debug_abbrev  0x00003358      0x104 ./src/bsp/app_int.o
 .debug_abbrev  0x0000345c       0x7e ./src/bsp/app_vect.o
 .debug_abbrev  0x000034da       0x5f ./src/bsp/stm32f10x_startup.o
 .debug_abbrev  0x00003539      0x1d0 ./src/bsp/stm32f10x_syscall.o
 .debug_abbrev  0x00003709      0x1d8 ./src/bsp/sdcard.o
 .debug_abbrev  0x000038e1       0x6a ./src/usb/usb_desc.o
 .debug_abbrev  0x0000394b       0x89 ./src/usb/usb_endp.o
 .debug_abbrev  0x000039d4       0xe8 ./src/usb/usb_istr.o
 .debug_abbrev  0x00003abc      0x191 ./src/usb/usb_prop.o
 .debug_abbrev  0x00003c4d      0x11c ./src/usb/usb_pwr.o
 .debug_abbrev  0x00003d69      0x1ed ./src/usb/hw_config.o
 .debug_abbrev  0x00003f56      0x115 ./src/sram/fsmc_sram.o
 .debug_abbrev  0x0000406b       0x14 ./lib/./uC-CPU/Cortex-M3/GCC/cpu_a.o
 .debug_abbrev  0x0000407f       0x14 ./lib/./uCOS-II/Ports/ARM-Cortex-M3/Generic/GCC/os_cpu_a.o
 .debug_abbrev  0x00004093      0x1a7 c:/apps/yagarto/bin/../lib/gcc/arm-elf/4.4.2/../../../../arm-elf/lib/thumb/thumb2\libc.a(lib_a-fopen.o)
 .debug_abbrev  0x0000423a      0x1a6 c:/apps/yagarto/bin/../lib/gcc/arm-elf/4.4.2/../../../../arm-elf/lib/thumb/thumb2\libc.a(lib_a-fprintf.o)
 .debug_abbrev  0x000043e0      0x1fe c:/apps/yagarto/bin/../lib/gcc/arm-elf/4.4.2/../../../../arm-elf/lib/thumb/thumb2\libc.a(lib_a-fseek.o)
 .debug_abbrev  0x000045de      0x17f c:/apps/yagarto/bin/../lib/gcc/arm-elf/4.4.2/../../../../arm-elf/lib/thumb/thumb2\libc.a(lib_a-fstatr.o)
 .debug_abbrev  0x0000475d      0x1a6 c:/apps/yagarto/bin/../lib/gcc/arm-elf/4.4.2/../../../../arm-elf/lib/thumb/thumb2\libc.a(lib_a-fwrite.o)
 .debug_abbrev  0x00004903      0x162 c:/apps/yagarto/bin/../lib/gcc/arm-elf/4.4.2/../../../../arm-elf/lib/thumb/thumb2\libc.a(lib_a-impure.o)
 .debug_abbrev  0x00004a65      0x17b c:/apps/yagarto/bin/../lib/gcc/arm-elf/4.4.2/../../../../arm-elf/lib/thumb/thumb2\libc.a(lib_a-makebuf.o)
 .debug_abbrev  0x00004be0      0x1fa c:/apps/yagarto/bin/../lib/gcc/arm-elf/4.4.2/../../../../arm-elf/lib/thumb/thumb2\libc.a(lib_a-mallocr.o)
 .debug_abbrev  0x00004dda       0xb2 c:/apps/yagarto/bin/../lib/gcc/arm-elf/4.4.2/../../../../arm-elf/lib/thumb/thumb2\libc.a(lib_a-memset.o)
 .debug_abbrev  0x00004e8c      0x15b c:/apps/yagarto/bin/../lib/gcc/arm-elf/4.4.2/../../../../arm-elf/lib/thumb/thumb2\libc.a(lib_a-mlock.o)
 .debug_abbrev  0x00004fe7      0x17f c:/apps/yagarto/bin/../lib/gcc/arm-elf/4.4.2/../../../../arm-elf/lib/thumb/thumb2\libc.a(lib_a-openr.o)
 .debug_abbrev  0x00005166      0x1aa c:/apps/yagarto/bin/../lib/gcc/arm-elf/4.4.2/../../../../arm-elf/lib/thumb/thumb2\libc.a(lib_a-rand.o)
 .debug_abbrev  0x00005310      0x1d7 c:/apps/yagarto/bin/../lib/gcc/arm-elf/4.4.2/../../../../arm-elf/lib/thumb/thumb2\libc.a(lib_a-reent.o)
 .debug_abbrev  0x000054e7      0x181 c:/apps/yagarto/bin/../lib/gcc/arm-elf/4.4.2/../../../../arm-elf/lib/thumb/thumb2\libc.a(lib_a-refill.o)
 .debug_abbrev  0x00005668      0x17f c:/apps/yagarto/bin/../lib/gcc/arm-elf/4.4.2/../../../../arm-elf/lib/thumb/thumb2\libc.a(lib_a-sbrkr.o)
 .debug_abbrev  0x000057e7      0x1a1 c:/apps/yagarto/bin/../lib/gcc/arm-elf/4.4.2/../../../../arm-elf/lib/thumb/thumb2\libc.a(lib_a-stdio.o)
 .debug_abbrev  0x00005988       0x89 c:/apps/yagarto/bin/../lib/gcc/arm-elf/4.4.2/../../../../arm-elf/lib/thumb/thumb2\libc.a(lib_a-strcmp.o)
 .debug_abbrev  0x00005a11      0x345 c:/apps/yagarto/bin/../lib/gcc/arm-elf/4.4.2/../../../../arm-elf/lib/thumb/thumb2\libc.a(lib_a-vfprintf.o)
 .debug_abbrev  0x00005d56      0x175 c:/apps/yagarto/bin/../lib/gcc/arm-elf/4.4.2/../../../../arm-elf/lib/thumb/thumb2\libc.a(lib_a-writer.o)
 .debug_abbrev  0x00005ecb      0x16a c:/apps/yagarto/bin/../lib/gcc/arm-elf/4.4.2/../../../../arm-elf/lib/thumb/thumb2\libc.a(lib_a-wsetup.o)
 .debug_abbrev  0x00006035      0x170 c:/apps/yagarto/bin/../lib/gcc/arm-elf/4.4.2/../../../../arm-elf/lib/thumb/thumb2\libc.a(lib_a-closer.o)
 .debug_abbrev  0x000061a5      0x251 c:/apps/yagarto/bin/../lib/gcc/arm-elf/4.4.2/../../../../arm-elf/lib/thumb/thumb2\libc.a(lib_a-dtoa.o)
 .debug_abbrev  0x000063f6      0x1be c:/apps/yagarto/bin/../lib/gcc/arm-elf/4.4.2/../../../../arm-elf/lib/thumb/thumb2\libc.a(lib_a-fflush.o)
 .debug_abbrev  0x000065b4      0x24f c:/apps/yagarto/bin/../lib/gcc/arm-elf/4.4.2/../../../../arm-elf/lib/thumb/thumb2\libc.a(lib_a-findfp.o)
 .debug_abbrev  0x00006803      0x16e c:/apps/yagarto/bin/../lib/gcc/arm-elf/4.4.2/../../../../arm-elf/lib/thumb/thumb2\libc.a(lib_a-flags.o)
 .debug_abbrev  0x00006971      0x1bb c:/apps/yagarto/bin/../lib/gcc/arm-elf/4.4.2/../../../../arm-elf/lib/thumb/thumb2\libc.a(lib_a-freer.o)
 .debug_abbrev  0x00006b2c      0x194 c:/apps/yagarto/bin/../lib/gcc/arm-elf/4.4.2/../../../../arm-elf/lib/thumb/thumb2\libc.a(lib_a-fvwrite.o)
 .debug_abbrev  0x00006cc0      0x1d8 c:/apps/yagarto/bin/../lib/gcc/arm-elf/4.4.2/../../../../arm-elf/lib/thumb/thumb2\libc.a(lib_a-fwalk.o)
 .debug_abbrev  0x00006e98      0x170 c:/apps/yagarto/bin/../lib/gcc/arm-elf/4.4.2/../../../../arm-elf/lib/thumb/thumb2\libc.a(lib_a-isattyr.o)
 .debug_abbrev  0x00007008      0x210 c:/apps/yagarto/bin/../lib/gcc/arm-elf/4.4.2/../../../../arm-elf/lib/thumb/thumb2\libc.a(lib_a-locale.o)
 .debug_abbrev  0x00007218      0x17f c:/apps/yagarto/bin/../lib/gcc/arm-elf/4.4.2/../../../../arm-elf/lib/thumb/thumb2\libc.a(lib_a-lseekr.o)
 .debug_abbrev  0x00007397      0x178 c:/apps/yagarto/bin/../lib/gcc/arm-elf/4.4.2/../../../../arm-elf/lib/thumb/thumb2\libc.a(lib_a-malloc.o)
 .debug_abbrev  0x0000750f       0xdc c:/apps/yagarto/bin/../lib/gcc/arm-elf/4.4.2/../../../../arm-elf/lib/thumb/thumb2\libc.a(lib_a-memchr.o)
 .debug_abbrev  0x000075eb       0xa2 c:/apps/yagarto/bin/../lib/gcc/arm-elf/4.4.2/../../../../arm-elf/lib/thumb/thumb2\libc.a(lib_a-memcpy.o)
 .debug_abbrev  0x0000768d       0xa2 c:/apps/yagarto/bin/../lib/gcc/arm-elf/4.4.2/../../../../arm-elf/lib/thumb/thumb2\libc.a(lib_a-memmove.o)
 .debug_abbrev  0x0000772f      0x314 c:/apps/yagarto/bin/../lib/gcc/arm-elf/4.4.2/../../../../arm-elf/lib/thumb/thumb2\libc.a(lib_a-mprec.o)
 .debug_abbrev  0x00007a43      0x170 c:/apps/yagarto/bin/../lib/gcc/arm-elf/4.4.2/../../../../arm-elf/lib/thumb/thumb2\libc.a(lib_a-readr.o)
 .debug_abbrev  0x00007bb3      0x1c8 c:/apps/yagarto/bin/../lib/gcc/arm-elf/4.4.2/../../../../arm-elf/lib/thumb/thumb2\libc.a(lib_a-reallocr.o)
 .debug_abbrev  0x00007d7b       0x82 c:/apps/yagarto/bin/../lib/gcc/arm-elf/4.4.2/../../../../arm-elf/lib/thumb/thumb2\libc.a(lib_a-s_isinfd.o)
 .debug_abbrev  0x00007dfd       0x73 c:/apps/yagarto/bin/../lib/gcc/arm-elf/4.4.2/../../../../arm-elf/lib/thumb/thumb2\libc.a(lib_a-s_isnand.o)
 .debug_abbrev  0x00007e70       0x94 c:/apps/yagarto/bin/../lib/gcc/arm-elf/4.4.2/../../../../arm-elf/lib/thumb/thumb2\libc.a(lib_a-strlen.o)
 .debug_abbrev  0x00007f04      0x19a c:/apps/yagarto/bin/../lib/gcc/arm-elf/4.4.2/../../../../arm-elf/lib/thumb/thumb2\libc.a(lib_a-callocr.o)
 .debug_abbrev  0x0000809e      0x1a1 c:/apps/yagarto/bin/../lib/gcc/arm-elf/4.4.2/../../../../arm-elf/lib/thumb/thumb2\libc.a(lib_a-fclose.o)
 .debug_abbrev  0x0000823f       0x14 c:/apps/yagarto/bin/../lib/gcc/arm-elf/4.4.2/thumb/thumb2\libgcc.a(_udivsi3.o)
 .debug_abbrev  0x00008253       0x14 c:/apps/yagarto/bin/../lib/gcc/arm-elf/4.4.2/thumb/thumb2\libgcc.a(_dvmd_tls.o)
 .debug_abbrev  0x00008267       0x14 c:/apps/yagarto/bin/../lib/gcc/arm-elf/4.4.2/thumb/thumb2\libgcc.a(_arm_addsubdf3.o)
 .debug_abbrev  0x0000827b       0x14 c:/apps/yagarto/bin/../lib/gcc/arm-elf/4.4.2/thumb/thumb2\libgcc.a(_arm_muldivdf3.o)
 .debug_abbrev  0x0000828f       0x14 c:/apps/yagarto/bin/../lib/gcc/arm-elf/4.4.2/thumb/thumb2\libgcc.a(_arm_cmpdf2.o)
 .debug_abbrev  0x000082a3       0x14 c:/apps/yagarto/bin/../lib/gcc/arm-elf/4.4.2/thumb/thumb2\libgcc.a(_arm_fixdfsi.o)

.debug_info     0x00000000    0x2fdd1
 .debug_info    0x00000000      0x4fd ./lib/./STM32F10x_StdPeriph_Driver/src/misc.o
 .debug_info    0x000004fd      0x12c ./lib/./STM32F10x_StdPeriph_Driver/src/stm32f10x_dbgmcu.o
 .debug_info    0x00000629      0x726 ./lib/./STM32F10x_StdPeriph_Driver/src/stm32f10x_flash.o
 .debug_info    0x00000d4f      0x6cc ./lib/./STM32F10x_StdPeriph_Driver/src/stm32f10x_gpio.o
 .debug_info    0x0000141b      0x8cc ./lib/./STM32F10x_StdPeriph_Driver/src/stm32f10x_rcc.o
 .debug_info    0x00001ce7      0x861 ./lib/./STM32F10x_StdPeriph_Driver/src/stm32f10x_sdio.o
 .debug_info    0x00002548      0x9ca ./lib/./STM32F10x_StdPeriph_Driver/src/stm32f10x_usart.o
 .debug_info    0x00002f12      0xb39 ./lib/./STM32F10x_StdPeriph_Driver/src/stm32f10x_i2c.o
 .debug_info    0x00003a4b      0x43b ./lib/./STM32F10x_StdPeriph_Driver/src/stm32f10x_dma.o
 .debug_info    0x00003e86      0xbec ./lib/./STM32F10x_StdPeriph_Driver/src/stm32f10x_adc.o
 .debug_info    0x00004a72      0x49c ./lib/./STM32F10x_StdPeriph_Driver/src/stm32f10x_dac.o
 .debug_info    0x00004f0e     0x1de8 ./lib/./STM32F10x_StdPeriph_Driver/src/stm32f10x_tim.o
 .debug_info    0x00006cf6      0x922 ./lib/./STM32F10x_StdPeriph_Driver/src/stm32f10x_fsmc.o
 .debug_info    0x00007618      0x333 ./lib/./STM32F10x_StdPeriph_Driver/src/stm32f10x_exti.o
 .debug_info    0x0000794b      0x84f ./lib/./STM32F10x_StdPeriph_Driver/src/stm32f10x_bkp.o
 .debug_info    0x0000819a      0x29e ./lib/./STM32F10x_StdPeriph_Driver/src/stm32f10x_pwr.o
 .debug_info    0x00008438      0x27e ./lib/./uC-CPU/Cortex-M3/GCC/cpu_c.o
 .debug_info    0x000086b6      0x58e ./lib/./uCOS-II/Ports/ARM-Cortex-M3/Generic/GCC/os_cpu_c.o
 .debug_info    0x00008c44      0xa7e ./lib/./uCOS-II/Ports/ARM-Cortex-M3/Generic/GCC/os_dbg.o
 .debug_info    0x000096c2     0x1340 ./lib/./uCOS-II/Source/os_core.o
 .debug_info    0x0000aa02      0xa43 ./lib/./uCOS-II/Source/os_flag.o
 .debug_info    0x0000b445      0x71a ./lib/./uCOS-II/Source/os_mbox.o
 .debug_info    0x0000bb5f      0x45c ./lib/./uCOS-II/Source/os_mem.o
 .debug_info    0x0000bfbb      0x796 ./lib/./uCOS-II/Source/os_mutex.o
 .debug_info    0x0000c751      0x95f ./lib/./uCOS-II/Source/os_q.o
 .debug_info    0x0000d0b0      0x6f4 ./lib/./uCOS-II/Source/os_sem.o
 .debug_info    0x0000d7a4      0xa36 ./lib/./uCOS-II/Source/os_task.o
 .debug_info    0x0000e1da      0x567 ./lib/./uCOS-II/Source/os_time.o
 .debug_info    0x0000e741      0xa63 ./lib/./uCOS-II/Source/os_tmr.o
 .debug_info    0x0000f1a4      0xbc1 ./lib/./STM32_USB-FS-Device_Driver/src/usb_core.o
 .debug_info    0x0000fd65      0x470 ./lib/./STM32_USB-FS-Device_Driver/src/usb_init.o
 .debug_info    0x000101d5      0x1be ./lib/./STM32_USB-FS-Device_Driver/src/usb_int.o
 .debug_info    0x00010393      0x192 ./lib/./STM32_USB-FS-Device_Driver/src/usb_mem.o
 .debug_info    0x00010525      0xd45 ./lib/./STM32_USB-FS-Device_Driver/src/usb_regs.o
 .debug_info    0x0001126a      0x14c ./lib/./STM32_USB-FS-Device_Driver/src/usb_sil.o
 .debug_info    0x000113b6      0xa19 ./src/application/app.o
 .debug_info    0x00011dcf     0x16bd ./src/bsp/bsp.o
 .debug_info    0x0001348c      0x19d ./src/bsp/bsp_globals.o
 .debug_info    0x00013629      0x214 ./src/bsp/bsp_utils.o
 .debug_info    0x0001383d      0x7af ./src/bsp/app_int.o
 .debug_info    0x00013fec       0xa4 ./src/bsp/app_vect.o
 .debug_info    0x00014090      0x109 ./src/bsp/stm32f10x_startup.o
 .debug_info    0x00014199      0xa13 ./src/bsp/stm32f10x_syscall.o
 .debug_info    0x00014bac     0x1521 ./src/bsp/sdcard.o
 .debug_info    0x000160cd      0x16d ./src/usb/usb_desc.o
 .debug_info    0x0001623a      0x1fa ./src/usb/usb_endp.o
 .debug_info    0x00016434      0x25b ./src/usb/usb_istr.o
 .debug_info    0x0001668f      0x89b ./src/usb/usb_prop.o
 .debug_info    0x00016f2a      0x2b8 ./src/usb/usb_pwr.o
 .debug_info    0x000171e2      0x827 ./src/usb/hw_config.o
 .debug_info    0x00017a09      0x42a ./src/sram/fsmc_sram.o
 .debug_info    0x00017e33       0x5f ./lib/./uC-CPU/Cortex-M3/GCC/cpu_a.o
 .debug_info    0x00017e92       0x75 ./lib/./uCOS-II/Ports/ARM-Cortex-M3/Generic/GCC/os_cpu_a.o
 .debug_info    0x00017f07      0x977 c:/apps/yagarto/bin/../lib/gcc/arm-elf/4.4.2/../../../../arm-elf/lib/thumb/thumb2\libc.a(lib_a-fopen.o)
 .debug_info    0x0001887e      0x98c c:/apps/yagarto/bin/../lib/gcc/arm-elf/4.4.2/../../../../arm-elf/lib/thumb/thumb2\libc.a(lib_a-fprintf.o)
 .debug_info    0x0001920a      0xc17 c:/apps/yagarto/bin/../lib/gcc/arm-elf/4.4.2/../../../../arm-elf/lib/thumb/thumb2\libc.a(lib_a-fseek.o)
 .debug_info    0x00019e21      0xa92 c:/apps/yagarto/bin/../lib/gcc/arm-elf/4.4.2/../../../../arm-elf/lib/thumb/thumb2\libc.a(lib_a-fstatr.o)
 .debug_info    0x0001a8b3      0xac4 c:/apps/yagarto/bin/../lib/gcc/arm-elf/4.4.2/../../../../arm-elf/lib/thumb/thumb2\libc.a(lib_a-fwrite.o)
 .debug_info    0x0001b377      0x980 c:/apps/yagarto/bin/../lib/gcc/arm-elf/4.4.2/../../../../arm-elf/lib/thumb/thumb2\libc.a(lib_a-impure.o)
 .debug_info    0x0001bcf7      0xab2 c:/apps/yagarto/bin/../lib/gcc/arm-elf/4.4.2/../../../../arm-elf/lib/thumb/thumb2\libc.a(lib_a-makebuf.o)
 .debug_info    0x0001c7a9      0xc68 c:/apps/yagarto/bin/../lib/gcc/arm-elf/4.4.2/../../../../arm-elf/lib/thumb/thumb2\libc.a(lib_a-mallocr.o)
 .debug_info    0x0001d411      0x113 c:/apps/yagarto/bin/../lib/gcc/arm-elf/4.4.2/../../../../arm-elf/lib/thumb/thumb2\libc.a(lib_a-memset.o)
 .debug_info    0x0001d524      0x8eb c:/apps/yagarto/bin/../lib/gcc/arm-elf/4.4.2/../../../../arm-elf/lib/thumb/thumb2\libc.a(lib_a-mlock.o)
 .debug_info    0x0001de0f      0x90d c:/apps/yagarto/bin/../lib/gcc/arm-elf/4.4.2/../../../../arm-elf/lib/thumb/thumb2\libc.a(lib_a-openr.o)
 .debug_info    0x0001e71c      0x932 c:/apps/yagarto/bin/../lib/gcc/arm-elf/4.4.2/../../../../arm-elf/lib/thumb/thumb2\libc.a(lib_a-rand.o)
 .debug_info    0x0001f04e      0x993 c:/apps/yagarto/bin/../lib/gcc/arm-elf/4.4.2/../../../../arm-elf/lib/thumb/thumb2\libc.a(lib_a-reent.o)
 .debug_info    0x0001f9e1      0x9ce c:/apps/yagarto/bin/../lib/gcc/arm-elf/4.4.2/../../../../arm-elf/lib/thumb/thumb2\libc.a(lib_a-refill.o)
 .debug_info    0x000203af      0x8fa c:/apps/yagarto/bin/../lib/gcc/arm-elf/4.4.2/../../../../arm-elf/lib/thumb/thumb2\libc.a(lib_a-sbrkr.o)
 .debug_info    0x00020ca9      0xa46 c:/apps/yagarto/bin/../lib/gcc/arm-elf/4.4.2/../../../../arm-elf/lib/thumb/thumb2\libc.a(lib_a-stdio.o)
 .debug_info    0x000216ef       0xd9 c:/apps/yagarto/bin/../lib/gcc/arm-elf/4.4.2/../../../../arm-elf/lib/thumb/thumb2\libc.a(lib_a-strcmp.o)
 .debug_info    0x000217c8     0x1121 c:/apps/yagarto/bin/../lib/gcc/arm-elf/4.4.2/../../../../arm-elf/lib/thumb/thumb2\libc.a(lib_a-vfprintf.o)
 .debug_info    0x000228e9      0x929 c:/apps/yagarto/bin/../lib/gcc/arm-elf/4.4.2/../../../../arm-elf/lib/thumb/thumb2\libc.a(lib_a-writer.o)
 .debug_info    0x00023212      0x99e c:/apps/yagarto/bin/../lib/gcc/arm-elf/4.4.2/../../../../arm-elf/lib/thumb/thumb2\libc.a(lib_a-wsetup.o)
 .debug_info    0x00023bb0      0x8ee c:/apps/yagarto/bin/../lib/gcc/arm-elf/4.4.2/../../../../arm-elf/lib/thumb/thumb2\libc.a(lib_a-closer.o)
 .debug_info    0x0002449e      0xd25 c:/apps/yagarto/bin/../lib/gcc/arm-elf/4.4.2/../../../../arm-elf/lib/thumb/thumb2\libc.a(lib_a-dtoa.o)
 .debug_info    0x000251c3      0xa3e c:/apps/yagarto/bin/../lib/gcc/arm-elf/4.4.2/../../../../arm-elf/lib/thumb/thumb2\libc.a(lib_a-fflush.o)
 .debug_info    0x00025c01      0xbef c:/apps/yagarto/bin/../lib/gcc/arm-elf/4.4.2/../../../../arm-elf/lib/thumb/thumb2\libc.a(lib_a-findfp.o)
 .debug_info    0x000267f0      0x90d c:/apps/yagarto/bin/../lib/gcc/arm-elf/4.4.2/../../../../arm-elf/lib/thumb/thumb2\libc.a(lib_a-flags.o)
 .debug_info    0x000270fd      0xb5d c:/apps/yagarto/bin/../lib/gcc/arm-elf/4.4.2/../../../../arm-elf/lib/thumb/thumb2\libc.a(lib_a-freer.o)
 .debug_info    0x00027c5a      0xa18 c:/apps/yagarto/bin/../lib/gcc/arm-elf/4.4.2/../../../../arm-elf/lib/thumb/thumb2\libc.a(lib_a-fvwrite.o)
 .debug_info    0x00028672      0xa81 c:/apps/yagarto/bin/../lib/gcc/arm-elf/4.4.2/../../../../arm-elf/lib/thumb/thumb2\libc.a(lib_a-fwalk.o)
 .debug_info    0x000290f3      0x8ee c:/apps/yagarto/bin/../lib/gcc/arm-elf/4.4.2/../../../../arm-elf/lib/thumb/thumb2\libc.a(lib_a-isattyr.o)
 .debug_info    0x000299e1      0xb40 c:/apps/yagarto/bin/../lib/gcc/arm-elf/4.4.2/../../../../arm-elf/lib/thumb/thumb2\libc.a(lib_a-locale.o)
 .debug_info    0x0002a521      0x917 c:/apps/yagarto/bin/../lib/gcc/arm-elf/4.4.2/../../../../arm-elf/lib/thumb/thumb2\libc.a(lib_a-lseekr.o)
 .debug_info    0x0002ae38      0x906 c:/apps/yagarto/bin/../lib/gcc/arm-elf/4.4.2/../../../../arm-elf/lib/thumb/thumb2\libc.a(lib_a-malloc.o)
 .debug_info    0x0002b73e      0x123 c:/apps/yagarto/bin/../lib/gcc/arm-elf/4.4.2/../../../../arm-elf/lib/thumb/thumb2\libc.a(lib_a-memchr.o)
 .debug_info    0x0002b861      0x142 c:/apps/yagarto/bin/../lib/gcc/arm-elf/4.4.2/../../../../arm-elf/lib/thumb/thumb2\libc.a(lib_a-memcpy.o)
 .debug_info    0x0002b9a3      0x142 c:/apps/yagarto/bin/../lib/gcc/arm-elf/4.4.2/../../../../arm-elf/lib/thumb/thumb2\libc.a(lib_a-memmove.o)
 .debug_info    0x0002bae5     0x1499 c:/apps/yagarto/bin/../lib/gcc/arm-elf/4.4.2/../../../../arm-elf/lib/thumb/thumb2\libc.a(lib_a-mprec.o)
 .debug_info    0x0002cf7e      0x922 c:/apps/yagarto/bin/../lib/gcc/arm-elf/4.4.2/../../../../arm-elf/lib/thumb/thumb2\libc.a(lib_a-readr.o)
 .debug_info    0x0002d8a0      0xb4b c:/apps/yagarto/bin/../lib/gcc/arm-elf/4.4.2/../../../../arm-elf/lib/thumb/thumb2\libc.a(lib_a-reallocr.o)
 .debug_info    0x0002e3eb       0xd3 c:/apps/yagarto/bin/../lib/gcc/arm-elf/4.4.2/../../../../arm-elf/lib/thumb/thumb2\libc.a(lib_a-s_isinfd.o)
 .debug_info    0x0002e4be       0xcf c:/apps/yagarto/bin/../lib/gcc/arm-elf/4.4.2/../../../../arm-elf/lib/thumb/thumb2\libc.a(lib_a-s_isnand.o)
 .debug_info    0x0002e58d       0xd7 c:/apps/yagarto/bin/../lib/gcc/arm-elf/4.4.2/../../../../arm-elf/lib/thumb/thumb2\libc.a(lib_a-strlen.o)
 .debug_info    0x0002e664      0x9af c:/apps/yagarto/bin/../lib/gcc/arm-elf/4.4.2/../../../../arm-elf/lib/thumb/thumb2\libc.a(lib_a-callocr.o)
 .debug_info    0x0002f013      0x9d8 c:/apps/yagarto/bin/../lib/gcc/arm-elf/4.4.2/../../../../arm-elf/lib/thumb/thumb2\libc.a(lib_a-fclose.o)
 .debug_info    0x0002f9eb       0xa7 c:/apps/yagarto/bin/../lib/gcc/arm-elf/4.4.2/thumb/thumb2\libgcc.a(_udivsi3.o)
 .debug_info    0x0002fa92       0xa7 c:/apps/yagarto/bin/../lib/gcc/arm-elf/4.4.2/thumb/thumb2\libgcc.a(_dvmd_tls.o)
 .debug_info    0x0002fb39       0xa6 c:/apps/yagarto/bin/../lib/gcc/arm-elf/4.4.2/thumb/thumb2\libgcc.a(_arm_addsubdf3.o)
 .debug_info    0x0002fbdf       0xa6 c:/apps/yagarto/bin/../lib/gcc/arm-elf/4.4.2/thumb/thumb2\libgcc.a(_arm_muldivdf3.o)
 .debug_info    0x0002fc85       0xa6 c:/apps/yagarto/bin/../lib/gcc/arm-elf/4.4.2/thumb/thumb2\libgcc.a(_arm_cmpdf2.o)
 .debug_info    0x0002fd2b       0xa6 c:/apps/yagarto/bin/../lib/gcc/arm-elf/4.4.2/thumb/thumb2\libgcc.a(_arm_fixdfsi.o)

.debug_line     0x00000000     0xa97a
 .debug_line    0x00000000      0x127 ./lib/./STM32F10x_StdPeriph_Driver/src/misc.o
 .debug_line    0x00000127       0xd8 ./lib/./STM32F10x_StdPeriph_Driver/src/stm32f10x_dbgmcu.o
 .debug_line    0x000001ff      0x22b ./lib/./STM32F10x_StdPeriph_Driver/src/stm32f10x_flash.o
 .debug_line    0x0000042a      0x1c5 ./lib/./STM32F10x_StdPeriph_Driver/src/stm32f10x_gpio.o
 .debug_line    0x000005ef      0x221 ./lib/./STM32F10x_StdPeriph_Driver/src/stm32f10x_rcc.o
 .debug_line    0x00000810      0x1c5 ./lib/./STM32F10x_StdPeriph_Driver/src/stm32f10x_sdio.o
 .debug_line    0x000009d5      0x21c ./lib/./STM32F10x_StdPeriph_Driver/src/stm32f10x_usart.o
 .debug_line    0x00000bf1      0x22b ./lib/./STM32F10x_StdPeriph_Driver/src/stm32f10x_i2c.o
 .debug_line    0x00000e1c      0x17f ./lib/./STM32F10x_StdPeriph_Driver/src/stm32f10x_dma.o
 .debug_line    0x00000f9b      0x24d ./lib/./STM32F10x_StdPeriph_Driver/src/stm32f10x_adc.o
 .debug_line    0x000011e8      0x168 ./lib/./STM32F10x_StdPeriph_Driver/src/stm32f10x_dac.o
 .debug_line    0x00001350      0x462 ./lib/./STM32F10x_StdPeriph_Driver/src/stm32f10x_tim.o
 .debug_line    0x000017b2      0x24a ./lib/./STM32F10x_StdPeriph_Driver/src/stm32f10x_fsmc.o
 .debug_line    0x000019fc      0x14d ./lib/./STM32F10x_StdPeriph_Driver/src/stm32f10x_exti.o
 .debug_line    0x00001b49      0x109 ./lib/./STM32F10x_StdPeriph_Driver/src/stm32f10x_bkp.o
 .debug_line    0x00001c52      0x11c ./lib/./STM32F10x_StdPeriph_Driver/src/stm32f10x_pwr.o
 .debug_line    0x00001d6e      0x153 ./lib/./uC-CPU/Cortex-M3/GCC/cpu_c.o
 .debug_line    0x00001ec1      0x116 ./lib/./uCOS-II/Ports/ARM-Cortex-M3/Generic/GCC/os_cpu_c.o
 .debug_line    0x00001fd7       0xcb ./lib/./uCOS-II/Ports/ARM-Cortex-M3/Generic/GCC/os_dbg.o
 .debug_line    0x000020a2      0x365 ./lib/./uCOS-II/Source/os_core.o
 .debug_line    0x00002407      0x27a ./lib/./uCOS-II/Source/os_flag.o
 .debug_line    0x00002681      0x18f ./lib/./uCOS-II/Source/os_mbox.o
 .debug_line    0x00002810      0x131 ./lib/./uCOS-II/Source/os_mem.o
 .debug_line    0x00002941      0x1c9 ./lib/./uCOS-II/Source/os_mutex.o
 .debug_line    0x00002b0a      0x1f6 ./lib/./uCOS-II/Source/os_q.o
 .debug_line    0x00002d00      0x181 ./lib/./uCOS-II/Source/os_sem.o
 .debug_line    0x00002e81      0x236 ./lib/./uCOS-II/Source/os_task.o
 .debug_line    0x000030b7      0x106 ./lib/./uCOS-II/Source/os_time.o
 .debug_line    0x000031bd      0x229 ./lib/./uCOS-II/Source/os_tmr.o
 .debug_line    0x000033e6      0x31b ./lib/./STM32_USB-FS-Device_Driver/src/usb_core.o
 .debug_line    0x00003701       0xd8 ./lib/./STM32_USB-FS-Device_Driver/src/usb_init.o
 .debug_line    0x000037d9      0x132 ./lib/./STM32_USB-FS-Device_Driver/src/usb_int.o
 .debug_line    0x0000390b       0xb5 ./lib/./STM32_USB-FS-Device_Driver/src/usb_mem.o
 .debug_line    0x000039c0      0x23d ./lib/./STM32_USB-FS-Device_Driver/src/usb_regs.o
 .debug_line    0x00003bfd       0xeb ./lib/./STM32_USB-FS-Device_Driver/src/usb_sil.o
 .debug_line    0x00003ce8      0x1d3 ./src/application/app.o
 .debug_line    0x00003ebb      0x3a1 ./src/bsp/bsp.o
 .debug_line    0x0000425c       0x74 ./src/bsp/bsp_globals.o
 .debug_line    0x000042d0       0xba ./src/bsp/bsp_utils.o
 .debug_line    0x0000438a      0x1dc ./src/bsp/app_int.o
 .debug_line    0x00004566       0x40 ./src/bsp/app_vect.o
 .debug_line    0x000045a6       0x6a ./src/bsp/stm32f10x_startup.o
 .debug_line    0x00004610      0x19c ./src/bsp/stm32f10x_syscall.o
 .debug_line    0x000047ac      0x744 ./src/bsp/sdcard.o
 .debug_line    0x00004ef0       0x71 ./src/usb/usb_desc.o
 .debug_line    0x00004f61       0xbb ./src/usb/usb_endp.o
 .debug_line    0x0000501c       0xd5 ./src/usb/usb_istr.o
 .debug_line    0x000050f1      0x18c ./src/usb/usb_prop.o
 .debug_line    0x0000527d      0x149 ./src/usb/usb_pwr.o
 .debug_line    0x000053c6      0x1bf ./src/usb/hw_config.o
 .debug_line    0x00005585      0x150 ./src/sram/fsmc_sram.o
 .debug_line    0x000056d5       0x66 ./lib/./uC-CPU/Cortex-M3/GCC/cpu_a.o
 .debug_line    0x0000573b       0xa7 ./lib/./uCOS-II/Ports/ARM-Cortex-M3/Generic/GCC/os_cpu_a.o
 .debug_line    0x000057e2      0x18e c:/apps/yagarto/bin/../lib/gcc/arm-elf/4.4.2/../../../../arm-elf/lib/thumb/thumb2\libc.a(lib_a-fopen.o)
 .debug_line    0x00005970      0x180 c:/apps/yagarto/bin/../lib/gcc/arm-elf/4.4.2/../../../../arm-elf/lib/thumb/thumb2\libc.a(lib_a-fprintf.o)
 .debug_line    0x00005af0      0x268 c:/apps/yagarto/bin/../lib/gcc/arm-elf/4.4.2/../../../../arm-elf/lib/thumb/thumb2\libc.a(lib_a-fseek.o)
 .debug_line    0x00005d58      0x182 c:/apps/yagarto/bin/../lib/gcc/arm-elf/4.4.2/../../../../arm-elf/lib/thumb/thumb2\libc.a(lib_a-fstatr.o)
 .debug_line    0x00005eda      0x198 c:/apps/yagarto/bin/../lib/gcc/arm-elf/4.4.2/../../../../arm-elf/lib/thumb/thumb2\libc.a(lib_a-fwrite.o)
 .debug_line    0x00006072      0x110 c:/apps/yagarto/bin/../lib/gcc/arm-elf/4.4.2/../../../../arm-elf/lib/thumb/thumb2\libc.a(lib_a-impure.o)
 .debug_line    0x00006182      0x1c1 c:/apps/yagarto/bin/../lib/gcc/arm-elf/4.4.2/../../../../arm-elf/lib/thumb/thumb2\libc.a(lib_a-makebuf.o)
 .debug_line    0x00006343      0x272 c:/apps/yagarto/bin/../lib/gcc/arm-elf/4.4.2/../../../../arm-elf/lib/thumb/thumb2\libc.a(lib_a-mallocr.o)
 .debug_line    0x000065b5      0x157 c:/apps/yagarto/bin/../lib/gcc/arm-elf/4.4.2/../../../../arm-elf/lib/thumb/thumb2\libc.a(lib_a-memset.o)
 .debug_line    0x0000670c      0x122 c:/apps/yagarto/bin/../lib/gcc/arm-elf/4.4.2/../../../../arm-elf/lib/thumb/thumb2\libc.a(lib_a-mlock.o)
 .debug_line    0x0000682e      0x16b c:/apps/yagarto/bin/../lib/gcc/arm-elf/4.4.2/../../../../arm-elf/lib/thumb/thumb2\libc.a(lib_a-openr.o)
 .debug_line    0x00006999      0x176 c:/apps/yagarto/bin/../lib/gcc/arm-elf/4.4.2/../../../../arm-elf/lib/thumb/thumb2\libc.a(lib_a-rand.o)
 .debug_line    0x00006b0f      0x15c c:/apps/yagarto/bin/../lib/gcc/arm-elf/4.4.2/../../../../arm-elf/lib/thumb/thumb2\libc.a(lib_a-reent.o)
 .debug_line    0x00006c6b      0x1b7 c:/apps/yagarto/bin/../lib/gcc/arm-elf/4.4.2/../../../../arm-elf/lib/thumb/thumb2\libc.a(lib_a-refill.o)
 .debug_line    0x00006e22      0x16c c:/apps/yagarto/bin/../lib/gcc/arm-elf/4.4.2/../../../../arm-elf/lib/thumb/thumb2\libc.a(lib_a-sbrkr.o)
 .debug_line    0x00006f8e      0x193 c:/apps/yagarto/bin/../lib/gcc/arm-elf/4.4.2/../../../../arm-elf/lib/thumb/thumb2\libc.a(lib_a-stdio.o)
 .debug_line    0x00007121       0xc7 c:/apps/yagarto/bin/../lib/gcc/arm-elf/4.4.2/../../../../arm-elf/lib/thumb/thumb2\libc.a(lib_a-strcmp.o)
 .debug_line    0x000071e8      0x5a7 c:/apps/yagarto/bin/../lib/gcc/arm-elf/4.4.2/../../../../arm-elf/lib/thumb/thumb2\libc.a(lib_a-vfprintf.o)
 .debug_line    0x0000778f      0x16c c:/apps/yagarto/bin/../lib/gcc/arm-elf/4.4.2/../../../../arm-elf/lib/thumb/thumb2\libc.a(lib_a-writer.o)
 .debug_line    0x000078fb      0x18c c:/apps/yagarto/bin/../lib/gcc/arm-elf/4.4.2/../../../../arm-elf/lib/thumb/thumb2\libc.a(lib_a-wsetup.o)
 .debug_line    0x00007a87      0x16d c:/apps/yagarto/bin/../lib/gcc/arm-elf/4.4.2/../../../../arm-elf/lib/thumb/thumb2\libc.a(lib_a-closer.o)
 .debug_line    0x00007bf4      0x4c9 c:/apps/yagarto/bin/../lib/gcc/arm-elf/4.4.2/../../../../arm-elf/lib/thumb/thumb2\libc.a(lib_a-dtoa.o)
 .debug_line    0x000080bd      0x1d5 c:/apps/yagarto/bin/../lib/gcc/arm-elf/4.4.2/../../../../arm-elf/lib/thumb/thumb2\libc.a(lib_a-fflush.o)
 .debug_line    0x00008292      0x20f c:/apps/yagarto/bin/../lib/gcc/arm-elf/4.4.2/../../../../arm-elf/lib/thumb/thumb2\libc.a(lib_a-findfp.o)
 .debug_line    0x000084a1      0x141 c:/apps/yagarto/bin/../lib/gcc/arm-elf/4.4.2/../../../../arm-elf/lib/thumb/thumb2\libc.a(lib_a-flags.o)
 .debug_line    0x000085e2      0x1a4 c:/apps/yagarto/bin/../lib/gcc/arm-elf/4.4.2/../../../../arm-elf/lib/thumb/thumb2\libc.a(lib_a-freer.o)
 .debug_line    0x00008786      0x22e c:/apps/yagarto/bin/../lib/gcc/arm-elf/4.4.2/../../../../arm-elf/lib/thumb/thumb2\libc.a(lib_a-fvwrite.o)
 .debug_line    0x000089b4      0x186 c:/apps/yagarto/bin/../lib/gcc/arm-elf/4.4.2/../../../../arm-elf/lib/thumb/thumb2\libc.a(lib_a-fwalk.o)
 .debug_line    0x00008b3a      0x16e c:/apps/yagarto/bin/../lib/gcc/arm-elf/4.4.2/../../../../arm-elf/lib/thumb/thumb2\libc.a(lib_a-isattyr.o)
 .debug_line    0x00008ca8      0x189 c:/apps/yagarto/bin/../lib/gcc/arm-elf/4.4.2/../../../../arm-elf/lib/thumb/thumb2\libc.a(lib_a-locale.o)
 .debug_line    0x00008e31      0x16c c:/apps/yagarto/bin/../lib/gcc/arm-elf/4.4.2/../../../../arm-elf/lib/thumb/thumb2\libc.a(lib_a-lseekr.o)
 .debug_line    0x00008f9d      0x177 c:/apps/yagarto/bin/../lib/gcc/arm-elf/4.4.2/../../../../arm-elf/lib/thumb/thumb2\libc.a(lib_a-malloc.o)
 .debug_line    0x00009114      0x12e c:/apps/yagarto/bin/../lib/gcc/arm-elf/4.4.2/../../../../arm-elf/lib/thumb/thumb2\libc.a(lib_a-memchr.o)
 .debug_line    0x00009242      0x161 c:/apps/yagarto/bin/../lib/gcc/arm-elf/4.4.2/../../../../arm-elf/lib/thumb/thumb2\libc.a(lib_a-memcpy.o)
 .debug_line    0x000093a3      0x16d c:/apps/yagarto/bin/../lib/gcc/arm-elf/4.4.2/../../../../arm-elf/lib/thumb/thumb2\libc.a(lib_a-memmove.o)
 .debug_line    0x00009510      0x477 c:/apps/yagarto/bin/../lib/gcc/arm-elf/4.4.2/../../../../arm-elf/lib/thumb/thumb2\libc.a(lib_a-mprec.o)
 .debug_line    0x00009987      0x16b c:/apps/yagarto/bin/../lib/gcc/arm-elf/4.4.2/../../../../arm-elf/lib/thumb/thumb2\libc.a(lib_a-readr.o)
 .debug_line    0x00009af2      0x1d9 c:/apps/yagarto/bin/../lib/gcc/arm-elf/4.4.2/../../../../arm-elf/lib/thumb/thumb2\libc.a(lib_a-reallocr.o)
 .debug_line    0x00009ccb      0x10f c:/apps/yagarto/bin/../lib/gcc/arm-elf/4.4.2/../../../../arm-elf/lib/thumb/thumb2\libc.a(lib_a-s_isinfd.o)
 .debug_line    0x00009dda      0x10f c:/apps/yagarto/bin/../lib/gcc/arm-elf/4.4.2/../../../../arm-elf/lib/thumb/thumb2\libc.a(lib_a-s_isnand.o)
 .debug_line    0x00009ee9      0x117 c:/apps/yagarto/bin/../lib/gcc/arm-elf/4.4.2/../../../../arm-elf/lib/thumb/thumb2\libc.a(lib_a-strlen.o)
 .debug_line    0x0000a000      0x12c c:/apps/yagarto/bin/../lib/gcc/arm-elf/4.4.2/../../../../arm-elf/lib/thumb/thumb2\libc.a(lib_a-callocr.o)
 .debug_line    0x0000a12c      0x18a c:/apps/yagarto/bin/../lib/gcc/arm-elf/4.4.2/../../../../arm-elf/lib/thumb/thumb2\libc.a(lib_a-fclose.o)
 .debug_line    0x0000a2b6       0x86 c:/apps/yagarto/bin/../lib/gcc/arm-elf/4.4.2/thumb/thumb2\libgcc.a(_udivsi3.o)
 .debug_line    0x0000a33c       0x70 c:/apps/yagarto/bin/../lib/gcc/arm-elf/4.4.2/thumb/thumb2\libgcc.a(_dvmd_tls.o)
 .debug_line    0x0000a3ac      0x210 c:/apps/yagarto/bin/../lib/gcc/arm-elf/4.4.2/thumb/thumb2\libgcc.a(_arm_addsubdf3.o)
 .debug_line    0x0000a5bc      0x229 c:/apps/yagarto/bin/../lib/gcc/arm-elf/4.4.2/thumb/thumb2\libgcc.a(_arm_muldivdf3.o)
 .debug_line    0x0000a7e5      0x10e c:/apps/yagarto/bin/../lib/gcc/arm-elf/4.4.2/thumb/thumb2\libgcc.a(_arm_cmpdf2.o)
 .debug_line    0x0000a8f3       0x87 c:/apps/yagarto/bin/../lib/gcc/arm-elf/4.4.2/thumb/thumb2\libgcc.a(_arm_fixdfsi.o)

.debug_loc      0x00000000    0x118b9
 .debug_loc     0x00000000      0x113 ./lib/./STM32F10x_StdPeriph_Driver/src/misc.o
 .debug_loc     0x00000113       0x8d ./lib/./STM32F10x_StdPeriph_Driver/src/stm32f10x_dbgmcu.o
 .debug_loc     0x000001a0      0x4f8 ./lib/./STM32F10x_StdPeriph_Driver/src/stm32f10x_flash.o
 .debug_loc     0x00000698      0x3d2 ./lib/./STM32F10x_StdPeriph_Driver/src/stm32f10x_gpio.o
 .debug_loc     0x00000a6a      0x6bc ./lib/./STM32F10x_StdPeriph_Driver/src/stm32f10x_rcc.o
 .debug_loc     0x00001126      0x62a ./lib/./STM32F10x_StdPeriph_Driver/src/stm32f10x_sdio.o
 .debug_loc     0x00001750      0x5cd ./lib/./STM32F10x_StdPeriph_Driver/src/stm32f10x_usart.o
 .debug_loc     0x00001d1d      0x6e0 ./lib/./STM32F10x_StdPeriph_Driver/src/stm32f10x_i2c.o
 .debug_loc     0x000023fd      0x226 ./lib/./STM32F10x_StdPeriph_Driver/src/stm32f10x_dma.o
 .debug_loc     0x00002623      0x7b0 ./lib/./STM32F10x_StdPeriph_Driver/src/stm32f10x_adc.o
 .debug_loc     0x00002dd3      0x288 ./lib/./STM32F10x_StdPeriph_Driver/src/stm32f10x_dac.o
 .debug_loc     0x0000305b     0x138d ./lib/./STM32F10x_StdPeriph_Driver/src/stm32f10x_tim.o
 .debug_loc     0x000043e8      0x409 ./lib/./STM32F10x_StdPeriph_Driver/src/stm32f10x_fsmc.o
 .debug_loc     0x000047f1      0x1ac ./lib/./STM32F10x_StdPeriph_Driver/src/stm32f10x_exti.o
 .debug_loc     0x0000499d      0x258 ./lib/./STM32F10x_StdPeriph_Driver/src/stm32f10x_bkp.o
 .debug_loc     0x00004bf5      0x22d ./lib/./STM32F10x_StdPeriph_Driver/src/stm32f10x_pwr.o
 .debug_loc     0x00004e22       0xdc ./lib/./uC-CPU/Cortex-M3/GCC/cpu_c.o
 .debug_loc     0x00004efe      0x24c ./lib/./uCOS-II/Ports/ARM-Cortex-M3/Generic/GCC/os_cpu_c.o
 .debug_loc     0x0000514a       0x2b ./lib/./uCOS-II/Ports/ARM-Cortex-M3/Generic/GCC/os_dbg.o
 .debug_loc     0x00005175      0x73d ./lib/./uCOS-II/Source/os_core.o
 .debug_loc     0x000058b2      0x2cb ./lib/./uCOS-II/Source/os_flag.o
 .debug_loc     0x00005b7d      0x1b8 ./lib/./uCOS-II/Source/os_mbox.o
 .debug_loc     0x00005d35      0x181 ./lib/./uCOS-II/Source/os_mem.o
 .debug_loc     0x00005eb6      0x181 ./lib/./uCOS-II/Source/os_mutex.o
 .debug_loc     0x00006037      0x25d ./lib/./uCOS-II/Source/os_q.o
 .debug_loc     0x00006294      0x1b8 ./lib/./uCOS-II/Source/os_sem.o
 .debug_loc     0x0000644c      0x294 ./lib/./uCOS-II/Source/os_task.o
 .debug_loc     0x000066e0      0x113 ./lib/./uCOS-II/Source/os_time.o
 .debug_loc     0x000067f3      0x39b ./lib/./uCOS-II/Source/os_tmr.o
 .debug_loc     0x00006b8e      0x3e5 ./lib/./STM32_USB-FS-Device_Driver/src/usb_core.o
 .debug_loc     0x00006f73       0x2b ./lib/./STM32_USB-FS-Device_Driver/src/usb_init.o
 .debug_loc     0x00006f9e       0x6e ./lib/./STM32_USB-FS-Device_Driver/src/usb_int.o
 .debug_loc     0x0000700c       0x6e ./lib/./STM32_USB-FS-Device_Driver/src/usb_mem.o
 .debug_loc     0x0000707a      0xc71 ./lib/./STM32_USB-FS-Device_Driver/src/usb_regs.o
 .debug_loc     0x00007ceb       0x99 ./lib/./STM32_USB-FS-Device_Driver/src/usb_sil.o
 .debug_loc     0x00007d84       0x6e ./src/application/app.o
 .debug_loc     0x00007df2      0x79a ./src/bsp/bsp.o
 .debug_loc     0x0000858c      0x113 ./src/bsp/bsp_utils.o
 .debug_loc     0x0000869f      0xba3 ./src/bsp/app_int.o
 .debug_loc     0x00009242       0x37 ./src/bsp/stm32f10x_startup.o
 .debug_loc     0x00009279      0x483 ./src/bsp/stm32f10x_syscall.o
 .debug_loc     0x000096fc      0x69d ./src/bsp/sdcard.o
 .debug_loc     0x00009d99      0x25a ./src/usb/usb_endp.o
 .debug_loc     0x00009ff3       0x2b ./src/usb/usb_istr.o
 .debug_loc     0x0000a01e      0x2c6 ./src/usb/usb_prop.o
 .debug_loc     0x0000a2e4      0x107 ./src/usb/usb_pwr.o
 .debug_loc     0x0000a3eb      0x1cb ./src/usb/hw_config.o
 .debug_loc     0x0000a5b6       0xde ./src/sram/fsmc_sram.o
 .debug_loc     0x0000a694      0x19c c:/apps/yagarto/bin/../lib/gcc/arm-elf/4.4.2/../../../../arm-elf/lib/thumb/thumb2\libc.a(lib_a-fopen.o)
 .debug_loc     0x0000a830       0xb2 c:/apps/yagarto/bin/../lib/gcc/arm-elf/4.4.2/../../../../arm-elf/lib/thumb/thumb2\libc.a(lib_a-fprintf.o)
 .debug_loc     0x0000a8e2      0x313 c:/apps/yagarto/bin/../lib/gcc/arm-elf/4.4.2/../../../../arm-elf/lib/thumb/thumb2\libc.a(lib_a-fseek.o)
 .debug_loc     0x0000abf5       0x81 c:/apps/yagarto/bin/../lib/gcc/arm-elf/4.4.2/../../../../arm-elf/lib/thumb/thumb2\libc.a(lib_a-fstatr.o)
 .debug_loc     0x0000ac76      0x170 c:/apps/yagarto/bin/../lib/gcc/arm-elf/4.4.2/../../../../arm-elf/lib/thumb/thumb2\libc.a(lib_a-fwrite.o)
 .debug_loc     0x0000ade6       0xb7 c:/apps/yagarto/bin/../lib/gcc/arm-elf/4.4.2/../../../../arm-elf/lib/thumb/thumb2\libc.a(lib_a-makebuf.o)
 .debug_loc     0x0000ae9d      0x7f5 c:/apps/yagarto/bin/../lib/gcc/arm-elf/4.4.2/../../../../arm-elf/lib/thumb/thumb2\libc.a(lib_a-mallocr.o)
 .debug_loc     0x0000b692       0xff c:/apps/yagarto/bin/../lib/gcc/arm-elf/4.4.2/../../../../arm-elf/lib/thumb/thumb2\libc.a(lib_a-memset.o)
 .debug_loc     0x0000b791       0x94 c:/apps/yagarto/bin/../lib/gcc/arm-elf/4.4.2/../../../../arm-elf/lib/thumb/thumb2\libc.a(lib_a-openr.o)
 .debug_loc     0x0000b825       0x7a c:/apps/yagarto/bin/../lib/gcc/arm-elf/4.4.2/../../../../arm-elf/lib/thumb/thumb2\libc.a(lib_a-rand.o)
 .debug_loc     0x0000b89f      0x166 c:/apps/yagarto/bin/../lib/gcc/arm-elf/4.4.2/../../../../arm-elf/lib/thumb/thumb2\libc.a(lib_a-reent.o)
 .debug_loc     0x0000ba05       0xae c:/apps/yagarto/bin/../lib/gcc/arm-elf/4.4.2/../../../../arm-elf/lib/thumb/thumb2\libc.a(lib_a-refill.o)
 .debug_loc     0x0000bab3       0x6e c:/apps/yagarto/bin/../lib/gcc/arm-elf/4.4.2/../../../../arm-elf/lib/thumb/thumb2\libc.a(lib_a-sbrkr.o)
 .debug_loc     0x0000bb21      0x1f9 c:/apps/yagarto/bin/../lib/gcc/arm-elf/4.4.2/../../../../arm-elf/lib/thumb/thumb2\libc.a(lib_a-stdio.o)
 .debug_loc     0x0000bd1a       0x91 c:/apps/yagarto/bin/../lib/gcc/arm-elf/4.4.2/../../../../arm-elf/lib/thumb/thumb2\libc.a(lib_a-strcmp.o)
 .debug_loc     0x0000bdab     0x1567 c:/apps/yagarto/bin/../lib/gcc/arm-elf/4.4.2/../../../../arm-elf/lib/thumb/thumb2\libc.a(lib_a-vfprintf.o)
 .debug_loc     0x0000d312       0x94 c:/apps/yagarto/bin/../lib/gcc/arm-elf/4.4.2/../../../../arm-elf/lib/thumb/thumb2\libc.a(lib_a-writer.o)
 .debug_loc     0x0000d3a6       0x5b c:/apps/yagarto/bin/../lib/gcc/arm-elf/4.4.2/../../../../arm-elf/lib/thumb/thumb2\libc.a(lib_a-wsetup.o)
 .debug_loc     0x0000d401       0x6e c:/apps/yagarto/bin/../lib/gcc/arm-elf/4.4.2/../../../../arm-elf/lib/thumb/thumb2\libc.a(lib_a-closer.o)
 .debug_loc     0x0000d46f     0x1383 c:/apps/yagarto/bin/../lib/gcc/arm-elf/4.4.2/../../../../arm-elf/lib/thumb/thumb2\libc.a(lib_a-dtoa.o)
 .debug_loc     0x0000e7f2      0x1a7 c:/apps/yagarto/bin/../lib/gcc/arm-elf/4.4.2/../../../../arm-elf/lib/thumb/thumb2\libc.a(lib_a-fflush.o)
 .debug_loc     0x0000e999      0x2cd c:/apps/yagarto/bin/../lib/gcc/arm-elf/4.4.2/../../../../arm-elf/lib/thumb/thumb2\libc.a(lib_a-findfp.o)
 .debug_loc     0x0000ec66       0xfa c:/apps/yagarto/bin/../lib/gcc/arm-elf/4.4.2/../../../../arm-elf/lib/thumb/thumb2\libc.a(lib_a-flags.o)
 .debug_loc     0x0000ed60      0x402 c:/apps/yagarto/bin/../lib/gcc/arm-elf/4.4.2/../../../../arm-elf/lib/thumb/thumb2\libc.a(lib_a-freer.o)
 .debug_loc     0x0000f162      0x474 c:/apps/yagarto/bin/../lib/gcc/arm-elf/4.4.2/../../../../arm-elf/lib/thumb/thumb2\libc.a(lib_a-fvwrite.o)
 .debug_loc     0x0000f5d6       0xb6 c:/apps/yagarto/bin/../lib/gcc/arm-elf/4.4.2/../../../../arm-elf/lib/thumb/thumb2\libc.a(lib_a-fwalk.o)
 .debug_loc     0x0000f68c       0x6e c:/apps/yagarto/bin/../lib/gcc/arm-elf/4.4.2/../../../../arm-elf/lib/thumb/thumb2\libc.a(lib_a-isattyr.o)
 .debug_loc     0x0000f6fa       0xe7 c:/apps/yagarto/bin/../lib/gcc/arm-elf/4.4.2/../../../../arm-elf/lib/thumb/thumb2\libc.a(lib_a-locale.o)
 .debug_loc     0x0000f7e1       0x94 c:/apps/yagarto/bin/../lib/gcc/arm-elf/4.4.2/../../../../arm-elf/lib/thumb/thumb2\libc.a(lib_a-lseekr.o)
 .debug_loc     0x0000f875       0x7a c:/apps/yagarto/bin/../lib/gcc/arm-elf/4.4.2/../../../../arm-elf/lib/thumb/thumb2\libc.a(lib_a-malloc.o)
 .debug_loc     0x0000f8ef       0xcb c:/apps/yagarto/bin/../lib/gcc/arm-elf/4.4.2/../../../../arm-elf/lib/thumb/thumb2\libc.a(lib_a-memchr.o)
 .debug_loc     0x0000f9ba      0x11a c:/apps/yagarto/bin/../lib/gcc/arm-elf/4.4.2/../../../../arm-elf/lib/thumb/thumb2\libc.a(lib_a-memcpy.o)
 .debug_loc     0x0000fad4      0x193 c:/apps/yagarto/bin/../lib/gcc/arm-elf/4.4.2/../../../../arm-elf/lib/thumb/thumb2\libc.a(lib_a-memmove.o)
 .debug_loc     0x0000fc67     0x11fc c:/apps/yagarto/bin/../lib/gcc/arm-elf/4.4.2/../../../../arm-elf/lib/thumb/thumb2\libc.a(lib_a-mprec.o)
 .debug_loc     0x00010e63       0x94 c:/apps/yagarto/bin/../lib/gcc/arm-elf/4.4.2/../../../../arm-elf/lib/thumb/thumb2\libc.a(lib_a-readr.o)
 .debug_loc     0x00010ef7      0x76d c:/apps/yagarto/bin/../lib/gcc/arm-elf/4.4.2/../../../../arm-elf/lib/thumb/thumb2\libc.a(lib_a-reallocr.o)
 .debug_loc     0x00011664       0x2b c:/apps/yagarto/bin/../lib/gcc/arm-elf/4.4.2/../../../../arm-elf/lib/thumb/thumb2\libc.a(lib_a-s_isinfd.o)
 .debug_loc     0x0001168f       0x18 c:/apps/yagarto/bin/../lib/gcc/arm-elf/4.4.2/../../../../arm-elf/lib/thumb/thumb2\libc.a(lib_a-s_isnand.o)
 .debug_loc     0x000116a7       0x52 c:/apps/yagarto/bin/../lib/gcc/arm-elf/4.4.2/../../../../arm-elf/lib/thumb/thumb2\libc.a(lib_a-strlen.o)
 .debug_loc     0x000116f9       0xe9 c:/apps/yagarto/bin/../lib/gcc/arm-elf/4.4.2/../../../../arm-elf/lib/thumb/thumb2\libc.a(lib_a-callocr.o)
 .debug_loc     0x000117e2       0xd7 c:/apps/yagarto/bin/../lib/gcc/arm-elf/4.4.2/../../../../arm-elf/lib/thumb/thumb2\libc.a(lib_a-fclose.o)

.debug_pubnames
                0x00000000     0x561c
 .debug_pubnames
                0x00000000       0x89 ./lib/./STM32F10x_StdPeriph_Driver/src/misc.o
 .debug_pubnames
                0x00000089       0x4c ./lib/./STM32F10x_StdPeriph_Driver/src/stm32f10x_dbgmcu.o
 .debug_pubnames
                0x000000d5      0x26e ./lib/./STM32F10x_StdPeriph_Driver/src/stm32f10x_flash.o
 .debug_pubnames
                0x00000343      0x19d ./lib/./STM32F10x_StdPeriph_Driver/src/stm32f10x_gpio.o
 .debug_pubnames
                0x000004e0      0x2c4 ./lib/./STM32F10x_StdPeriph_Driver/src/stm32f10x_rcc.o
 .debug_pubnames
                0x000007a4      0x2ac ./lib/./STM32F10x_StdPeriph_Driver/src/stm32f10x_sdio.o
 .debug_pubnames
                0x00000a50      0x25f ./lib/./STM32F10x_StdPeriph_Driver/src/stm32f10x_usart.o
 .debug_pubnames
                0x00000caf      0x2b0 ./lib/./STM32F10x_StdPeriph_Driver/src/stm32f10x_i2c.o
 .debug_pubnames
                0x00000f5f       0xcf ./lib/./STM32F10x_StdPeriph_Driver/src/stm32f10x_dma.o
 .debug_pubnames
                0x0000102e      0x401 ./lib/./STM32F10x_StdPeriph_Driver/src/stm32f10x_adc.o
 .debug_pubnames
                0x0000142f      0x116 ./lib/./STM32F10x_StdPeriph_Driver/src/stm32f10x_dac.o
 .debug_pubnames
                0x00001545      0x7b0 ./lib/./STM32F10x_StdPeriph_Driver/src/stm32f10x_tim.o
 .debug_pubnames
                0x00001cf5      0x1a3 ./lib/./STM32F10x_StdPeriph_Driver/src/stm32f10x_fsmc.o
 .debug_pubnames
                0x00001e98       0xbb ./lib/./STM32F10x_StdPeriph_Driver/src/stm32f10x_exti.o
 .debug_pubnames
                0x00001f53      0x128 ./lib/./STM32F10x_StdPeriph_Driver/src/stm32f10x_bkp.o
 .debug_pubnames
                0x0000207b       0xcb ./lib/./STM32F10x_StdPeriph_Driver/src/stm32f10x_pwr.o
 .debug_pubnames
                0x00002146       0x61 ./lib/./uC-CPU/Cortex-M3/GCC/cpu_c.o
 .debug_pubnames
                0x000021a7       0xfe ./lib/./uCOS-II/Ports/ARM-Cortex-M3/Generic/GCC/os_cpu_c.o
 .debug_pubnames
                0x000022a5      0x30b ./lib/./uCOS-II/Ports/ARM-Cortex-M3/Generic/GCC/os_dbg.o
 .debug_pubnames
                0x000025b0      0x484 ./lib/./uCOS-II/Source/os_core.o
 .debug_pubnames
                0x00002a34       0xd0 ./lib/./uCOS-II/Source/os_flag.o
 .debug_pubnames
                0x00002b04       0x96 ./lib/./uCOS-II/Source/os_mbox.o
 .debug_pubnames
                0x00002b9a       0x7c ./lib/./uCOS-II/Source/os_mem.o
 .debug_pubnames
                0x00002c16       0x76 ./lib/./uCOS-II/Source/os_mutex.o
 .debug_pubnames
                0x00002c8c       0xa9 ./lib/./uCOS-II/Source/os_q.o
 .debug_pubnames
                0x00002d35       0x8a ./lib/./uCOS-II/Source/os_sem.o
 .debug_pubnames
                0x00002dbf       0xe5 ./lib/./uCOS-II/Source/os_task.o
 .debug_pubnames
                0x00002ea4       0x62 ./lib/./uCOS-II/Source/os_time.o
 .debug_pubnames
                0x00002f06       0xa1 ./lib/./uCOS-II/Source/os_tmr.o
 .debug_pubnames
                0x00002fa7      0x1a5 ./lib/./STM32_USB-FS-Device_Driver/src/usb_core.o
 .debug_pubnames
                0x0000314c       0x98 ./lib/./STM32_USB-FS-Device_Driver/src/usb_init.o
 .debug_pubnames
                0x000031e4       0x46 ./lib/./STM32_USB-FS-Device_Driver/src/usb_int.o
 .debug_pubnames
                0x0000322a       0x42 ./lib/./STM32_USB-FS-Device_Driver/src/usb_mem.o
 .debug_pubnames
                0x0000326c      0x419 ./lib/./STM32_USB-FS-Device_Driver/src/usb_regs.o
 .debug_pubnames
                0x00003685       0x46 ./lib/./STM32_USB-FS-Device_Driver/src/usb_sil.o
 .debug_pubnames
                0x000036cb       0x29 ./src/application/app.o
 .debug_pubnames
                0x000036f4      0x2d0 ./src/bsp/bsp.o
 .debug_pubnames
                0x000039c4       0xd4 ./src/bsp/bsp_globals.o
 .debug_pubnames
                0x00003a98       0x61 ./src/bsp/bsp_utils.o
 .debug_pubnames
                0x00003af9      0x633 ./src/bsp/app_int.o
 .debug_pubnames
                0x0000412c       0x23 ./src/bsp/app_vect.o
 .debug_pubnames
                0x0000414f       0x24 ./src/bsp/stm32f10x_startup.o
 .debug_pubnames
                0x00004173      0x1c0 ./src/bsp/stm32f10x_syscall.o
 .debug_pubnames
                0x00004333      0x213 ./src/bsp/sdcard.o
 .debug_pubnames
                0x00004546       0xe7 ./src/usb/usb_desc.o
 .debug_pubnames
                0x0000462d      0x14d ./src/usb/usb_endp.o
 .debug_pubnames
                0x0000477a       0x56 ./src/usb/usb_istr.o
 .debug_pubnames
                0x000047d0      0x29d ./src/usb/usb_prop.o
 .debug_pubnames
                0x00004a6d       0x83 ./src/usb/usb_pwr.o
 .debug_pubnames
                0x00004af0      0x112 ./src/usb/hw_config.o
 .debug_pubnames
                0x00004c02       0x6b ./src/sram/fsmc_sram.o
 .debug_pubnames
                0x00004c6d       0x29 c:/apps/yagarto/bin/../lib/gcc/arm-elf/4.4.2/../../../../arm-elf/lib/thumb/thumb2\libc.a(lib_a-fopen.o)
 .debug_pubnames
                0x00004c96       0x2d c:/apps/yagarto/bin/../lib/gcc/arm-elf/4.4.2/../../../../arm-elf/lib/thumb/thumb2\libc.a(lib_a-fprintf.o)
 .debug_pubnames
                0x00004cc3       0x29 c:/apps/yagarto/bin/../lib/gcc/arm-elf/4.4.2/../../../../arm-elf/lib/thumb/thumb2\libc.a(lib_a-fseek.o)
 .debug_pubnames
                0x00004cec       0x1f c:/apps/yagarto/bin/../lib/gcc/arm-elf/4.4.2/../../../../arm-elf/lib/thumb/thumb2\libc.a(lib_a-fstatr.o)
 .debug_pubnames
                0x00004d0b       0x2b c:/apps/yagarto/bin/../lib/gcc/arm-elf/4.4.2/../../../../arm-elf/lib/thumb/thumb2\libc.a(lib_a-fwrite.o)
 .debug_pubnames
                0x00004d36       0x39 c:/apps/yagarto/bin/../lib/gcc/arm-elf/4.4.2/../../../../arm-elf/lib/thumb/thumb2\libc.a(lib_a-impure.o)
 .debug_pubnames
                0x00004d6f       0x23 c:/apps/yagarto/bin/../lib/gcc/arm-elf/4.4.2/../../../../arm-elf/lib/thumb/thumb2\libc.a(lib_a-makebuf.o)
 .debug_pubnames
                0x00004d92       0xce c:/apps/yagarto/bin/../lib/gcc/arm-elf/4.4.2/../../../../arm-elf/lib/thumb/thumb2\libc.a(lib_a-mallocr.o)
 .debug_pubnames
                0x00004e60       0x1d c:/apps/yagarto/bin/../lib/gcc/arm-elf/4.4.2/../../../../arm-elf/lib/thumb/thumb2\libc.a(lib_a-memset.o)
 .debug_pubnames
                0x00004e7d       0x38 c:/apps/yagarto/bin/../lib/gcc/arm-elf/4.4.2/../../../../arm-elf/lib/thumb/thumb2\libc.a(lib_a-mlock.o)
 .debug_pubnames
                0x00004eb5       0x1e c:/apps/yagarto/bin/../lib/gcc/arm-elf/4.4.2/../../../../arm-elf/lib/thumb/thumb2\libc.a(lib_a-openr.o)
 .debug_pubnames
                0x00004ed3       0x25 c:/apps/yagarto/bin/../lib/gcc/arm-elf/4.4.2/../../../../arm-elf/lib/thumb/thumb2\libc.a(lib_a-rand.o)
 .debug_pubnames
                0x00004ef8       0x52 c:/apps/yagarto/bin/../lib/gcc/arm-elf/4.4.2/../../../../arm-elf/lib/thumb/thumb2\libc.a(lib_a-reent.o)
 .debug_pubnames
                0x00004f4a       0x22 c:/apps/yagarto/bin/../lib/gcc/arm-elf/4.4.2/../../../../arm-elf/lib/thumb/thumb2\libc.a(lib_a-refill.o)
 .debug_pubnames
                0x00004f6c       0x1e c:/apps/yagarto/bin/../lib/gcc/arm-elf/4.4.2/../../../../arm-elf/lib/thumb/thumb2\libc.a(lib_a-sbrkr.o)
 .debug_pubnames
                0x00004f8a       0x44 c:/apps/yagarto/bin/../lib/gcc/arm-elf/4.4.2/../../../../arm-elf/lib/thumb/thumb2\libc.a(lib_a-stdio.o)
 .debug_pubnames
                0x00004fce       0x1d c:/apps/yagarto/bin/../lib/gcc/arm-elf/4.4.2/../../../../arm-elf/lib/thumb/thumb2\libc.a(lib_a-strcmp.o)
 .debug_pubnames
                0x00004feb       0x2f c:/apps/yagarto/bin/../lib/gcc/arm-elf/4.4.2/../../../../arm-elf/lib/thumb/thumb2\libc.a(lib_a-vfprintf.o)
 .debug_pubnames
                0x0000501a       0x1f c:/apps/yagarto/bin/../lib/gcc/arm-elf/4.4.2/../../../../arm-elf/lib/thumb/thumb2\libc.a(lib_a-writer.o)
 .debug_pubnames
                0x00005039       0x22 c:/apps/yagarto/bin/../lib/gcc/arm-elf/4.4.2/../../../../arm-elf/lib/thumb/thumb2\libc.a(lib_a-wsetup.o)
 .debug_pubnames
                0x0000505b       0x1f c:/apps/yagarto/bin/../lib/gcc/arm-elf/4.4.2/../../../../arm-elf/lib/thumb/thumb2\libc.a(lib_a-closer.o)
 .debug_pubnames
                0x0000507a       0x1e c:/apps/yagarto/bin/../lib/gcc/arm-elf/4.4.2/../../../../arm-elf/lib/thumb/thumb2\libc.a(lib_a-dtoa.o)
 .debug_pubnames
                0x00005098       0x2b c:/apps/yagarto/bin/../lib/gcc/arm-elf/4.4.2/../../../../arm-elf/lib/thumb/thumb2\libc.a(lib_a-fflush.o)
 .debug_pubnames
                0x000050c3      0x119 c:/apps/yagarto/bin/../lib/gcc/arm-elf/4.4.2/../../../../arm-elf/lib/thumb/thumb2\libc.a(lib_a-findfp.o)
 .debug_pubnames
                0x000051dc       0x1f c:/apps/yagarto/bin/../lib/gcc/arm-elf/4.4.2/../../../../arm-elf/lib/thumb/thumb2\libc.a(lib_a-flags.o)
 .debug_pubnames
                0x000051fb       0x31 c:/apps/yagarto/bin/../lib/gcc/arm-elf/4.4.2/../../../../arm-elf/lib/thumb/thumb2\libc.a(lib_a-freer.o)
 .debug_pubnames
                0x0000522c       0x23 c:/apps/yagarto/bin/../lib/gcc/arm-elf/4.4.2/../../../../arm-elf/lib/thumb/thumb2\libc.a(lib_a-fvwrite.o)
 .debug_pubnames
                0x0000524f       0x2e c:/apps/yagarto/bin/../lib/gcc/arm-elf/4.4.2/../../../../arm-elf/lib/thumb/thumb2\libc.a(lib_a-fwalk.o)
 .debug_pubnames
                0x0000527d       0x20 c:/apps/yagarto/bin/../lib/gcc/arm-elf/4.4.2/../../../../arm-elf/lib/thumb/thumb2\libc.a(lib_a-isattyr.o)
 .debug_pubnames
                0x0000529d       0xc3 c:/apps/yagarto/bin/../lib/gcc/arm-elf/4.4.2/../../../../arm-elf/lib/thumb/thumb2\libc.a(lib_a-locale.o)
 .debug_pubnames
                0x00005360       0x1f c:/apps/yagarto/bin/../lib/gcc/arm-elf/4.4.2/../../../../arm-elf/lib/thumb/thumb2\libc.a(lib_a-lseekr.o)
 .debug_pubnames
                0x0000537f       0x26 c:/apps/yagarto/bin/../lib/gcc/arm-elf/4.4.2/../../../../arm-elf/lib/thumb/thumb2\libc.a(lib_a-malloc.o)
 .debug_pubnames
                0x000053a5       0x1d c:/apps/yagarto/bin/../lib/gcc/arm-elf/4.4.2/../../../../arm-elf/lib/thumb/thumb2\libc.a(lib_a-memchr.o)
 .debug_pubnames
                0x000053c2       0x1d c:/apps/yagarto/bin/../lib/gcc/arm-elf/4.4.2/../../../../arm-elf/lib/thumb/thumb2\libc.a(lib_a-memcpy.o)
 .debug_pubnames
                0x000053df       0x1e c:/apps/yagarto/bin/../lib/gcc/arm-elf/4.4.2/../../../../arm-elf/lib/thumb/thumb2\libc.a(lib_a-memmove.o)
 .debug_pubnames
                0x000053fd      0x13a c:/apps/yagarto/bin/../lib/gcc/arm-elf/4.4.2/../../../../arm-elf/lib/thumb/thumb2\libc.a(lib_a-mprec.o)
 .debug_pubnames
                0x00005537       0x1e c:/apps/yagarto/bin/../lib/gcc/arm-elf/4.4.2/../../../../arm-elf/lib/thumb/thumb2\libc.a(lib_a-readr.o)
 .debug_pubnames
                0x00005555       0x21 c:/apps/yagarto/bin/../lib/gcc/arm-elf/4.4.2/../../../../arm-elf/lib/thumb/thumb2\libc.a(lib_a-reallocr.o)
 .debug_pubnames
                0x00005576       0x1f c:/apps/yagarto/bin/../lib/gcc/arm-elf/4.4.2/../../../../arm-elf/lib/thumb/thumb2\libc.a(lib_a-s_isinfd.o)
 .debug_pubnames
                0x00005595       0x1f c:/apps/yagarto/bin/../lib/gcc/arm-elf/4.4.2/../../../../arm-elf/lib/thumb/thumb2\libc.a(lib_a-s_isnand.o)
 .debug_pubnames
                0x000055b4       0x1d c:/apps/yagarto/bin/../lib/gcc/arm-elf/4.4.2/../../../../arm-elf/lib/thumb/thumb2\libc.a(lib_a-strlen.o)
 .debug_pubnames
                0x000055d1       0x20 c:/apps/yagarto/bin/../lib/gcc/arm-elf/4.4.2/../../../../arm-elf/lib/thumb/thumb2\libc.a(lib_a-callocr.o)
 .debug_pubnames
                0x000055f1       0x2b c:/apps/yagarto/bin/../lib/gcc/arm-elf/4.4.2/../../../../arm-elf/lib/thumb/thumb2\libc.a(lib_a-fclose.o)

.debug_aranges  0x00000000      0xc40
 .debug_aranges
                0x00000000       0x20 ./lib/./STM32F10x_StdPeriph_Driver/src/misc.o
 .debug_aranges
                0x00000020       0x20 ./lib/./STM32F10x_StdPeriph_Driver/src/stm32f10x_dbgmcu.o
 .debug_aranges
                0x00000040       0x20 ./lib/./STM32F10x_StdPeriph_Driver/src/stm32f10x_flash.o
 .debug_aranges
                0x00000060       0x20 ./lib/./STM32F10x_StdPeriph_Driver/src/stm32f10x_gpio.o
 .debug_aranges
                0x00000080       0x20 ./lib/./STM32F10x_StdPeriph_Driver/src/stm32f10x_rcc.o
 .debug_aranges
                0x000000a0       0x20 ./lib/./STM32F10x_StdPeriph_Driver/src/stm32f10x_sdio.o
 .debug_aranges
                0x000000c0       0x20 ./lib/./STM32F10x_StdPeriph_Driver/src/stm32f10x_usart.o
 .debug_aranges
                0x000000e0       0x20 ./lib/./STM32F10x_StdPeriph_Driver/src/stm32f10x_i2c.o
 .debug_aranges
                0x00000100       0x20 ./lib/./STM32F10x_StdPeriph_Driver/src/stm32f10x_dma.o
 .debug_aranges
                0x00000120       0x20 ./lib/./STM32F10x_StdPeriph_Driver/src/stm32f10x_adc.o
 .debug_aranges
                0x00000140       0x20 ./lib/./STM32F10x_StdPeriph_Driver/src/stm32f10x_dac.o
 .debug_aranges
                0x00000160       0x20 ./lib/./STM32F10x_StdPeriph_Driver/src/stm32f10x_tim.o
 .debug_aranges
                0x00000180       0x20 ./lib/./STM32F10x_StdPeriph_Driver/src/stm32f10x_fsmc.o
 .debug_aranges
                0x000001a0       0x20 ./lib/./STM32F10x_StdPeriph_Driver/src/stm32f10x_exti.o
 .debug_aranges
                0x000001c0       0x20 ./lib/./STM32F10x_StdPeriph_Driver/src/stm32f10x_bkp.o
 .debug_aranges
                0x000001e0       0x20 ./lib/./STM32F10x_StdPeriph_Driver/src/stm32f10x_pwr.o
 .debug_aranges
                0x00000200       0x20 ./lib/./uC-CPU/Cortex-M3/GCC/cpu_c.o
 .debug_aranges
                0x00000220       0x20 ./lib/./uCOS-II/Ports/ARM-Cortex-M3/Generic/GCC/os_cpu_c.o
 .debug_aranges
                0x00000240       0x20 ./lib/./uCOS-II/Ports/ARM-Cortex-M3/Generic/GCC/os_dbg.o
 .debug_aranges
                0x00000260       0x20 ./lib/./uCOS-II/Source/os_core.o
 .debug_aranges
                0x00000280       0x20 ./lib/./uCOS-II/Source/os_flag.o
 .debug_aranges
                0x000002a0       0x20 ./lib/./uCOS-II/Source/os_mbox.o
 .debug_aranges
                0x000002c0       0x20 ./lib/./uCOS-II/Source/os_mem.o
 .debug_aranges
                0x000002e0       0x20 ./lib/./uCOS-II/Source/os_mutex.o
 .debug_aranges
                0x00000300       0x20 ./lib/./uCOS-II/Source/os_q.o
 .debug_aranges
                0x00000320       0x20 ./lib/./uCOS-II/Source/os_sem.o
 .debug_aranges
                0x00000340       0x20 ./lib/./uCOS-II/Source/os_task.o
 .debug_aranges
                0x00000360       0x20 ./lib/./uCOS-II/Source/os_time.o
 .debug_aranges
                0x00000380       0x20 ./lib/./uCOS-II/Source/os_tmr.o
 .debug_aranges
                0x000003a0       0x20 ./lib/./STM32_USB-FS-Device_Driver/src/usb_core.o
 .debug_aranges
                0x000003c0       0x20 ./lib/./STM32_USB-FS-Device_Driver/src/usb_init.o
 .debug_aranges
                0x000003e0       0x20 ./lib/./STM32_USB-FS-Device_Driver/src/usb_int.o
 .debug_aranges
                0x00000400       0x20 ./lib/./STM32_USB-FS-Device_Driver/src/usb_mem.o
 .debug_aranges
                0x00000420       0x20 ./lib/./STM32_USB-FS-Device_Driver/src/usb_regs.o
 .debug_aranges
                0x00000440       0x20 ./lib/./STM32_USB-FS-Device_Driver/src/usb_sil.o
 .debug_aranges
                0x00000460       0x20 ./src/application/app.o
 .debug_aranges
                0x00000480       0x20 ./src/bsp/bsp.o
 .debug_aranges
                0x000004a0       0x20 ./src/bsp/bsp_utils.o
 .debug_aranges
                0x000004c0       0x20 ./src/bsp/app_int.o
 .debug_aranges
                0x000004e0       0x20 ./src/bsp/stm32f10x_startup.o
 .debug_aranges
                0x00000500       0x20 ./src/bsp/stm32f10x_syscall.o
 .debug_aranges
                0x00000520       0x20 ./src/bsp/sdcard.o
 .debug_aranges
                0x00000540       0x20 ./src/usb/usb_endp.o
 .debug_aranges
                0x00000560       0x20 ./src/usb/usb_istr.o
 .debug_aranges
                0x00000580       0x20 ./src/usb/usb_prop.o
 .debug_aranges
                0x000005a0       0x20 ./src/usb/usb_pwr.o
 .debug_aranges
                0x000005c0       0x20 ./src/usb/hw_config.o
 .debug_aranges
                0x000005e0       0x20 ./src/sram/fsmc_sram.o
 .debug_aranges
                0x00000600       0x20 ./lib/./uC-CPU/Cortex-M3/GCC/cpu_a.o
 .debug_aranges
                0x00000620       0x20 ./lib/./uCOS-II/Ports/ARM-Cortex-M3/Generic/GCC/os_cpu_a.o
 .debug_aranges
                0x00000640       0x20 c:/apps/yagarto/bin/../lib/gcc/arm-elf/4.4.2/../../../../arm-elf/lib/thumb/thumb2\libc.a(lib_a-fopen.o)
 .debug_aranges
                0x00000660       0x20 c:/apps/yagarto/bin/../lib/gcc/arm-elf/4.4.2/../../../../arm-elf/lib/thumb/thumb2\libc.a(lib_a-fprintf.o)
 .debug_aranges
                0x00000680       0x20 c:/apps/yagarto/bin/../lib/gcc/arm-elf/4.4.2/../../../../arm-elf/lib/thumb/thumb2\libc.a(lib_a-fseek.o)
 .debug_aranges
                0x000006a0       0x20 c:/apps/yagarto/bin/../lib/gcc/arm-elf/4.4.2/../../../../arm-elf/lib/thumb/thumb2\libc.a(lib_a-fstatr.o)
 .debug_aranges
                0x000006c0       0x20 c:/apps/yagarto/bin/../lib/gcc/arm-elf/4.4.2/../../../../arm-elf/lib/thumb/thumb2\libc.a(lib_a-fwrite.o)
 .debug_aranges
                0x000006e0       0x20 c:/apps/yagarto/bin/../lib/gcc/arm-elf/4.4.2/../../../../arm-elf/lib/thumb/thumb2\libc.a(lib_a-makebuf.o)
 .debug_aranges
                0x00000700       0x20 c:/apps/yagarto/bin/../lib/gcc/arm-elf/4.4.2/../../../../arm-elf/lib/thumb/thumb2\libc.a(lib_a-mallocr.o)
 .debug_aranges
                0x00000720       0x20 c:/apps/yagarto/bin/../lib/gcc/arm-elf/4.4.2/../../../../arm-elf/lib/thumb/thumb2\libc.a(lib_a-memset.o)
 .debug_aranges
                0x00000740       0x20 c:/apps/yagarto/bin/../lib/gcc/arm-elf/4.4.2/../../../../arm-elf/lib/thumb/thumb2\libc.a(lib_a-mlock.o)
 .debug_aranges
                0x00000760       0x20 c:/apps/yagarto/bin/../lib/gcc/arm-elf/4.4.2/../../../../arm-elf/lib/thumb/thumb2\libc.a(lib_a-openr.o)
 .debug_aranges
                0x00000780       0x20 c:/apps/yagarto/bin/../lib/gcc/arm-elf/4.4.2/../../../../arm-elf/lib/thumb/thumb2\libc.a(lib_a-rand.o)
 .debug_aranges
                0x000007a0       0x20 c:/apps/yagarto/bin/../lib/gcc/arm-elf/4.4.2/../../../../arm-elf/lib/thumb/thumb2\libc.a(lib_a-reent.o)
 .debug_aranges
                0x000007c0       0x20 c:/apps/yagarto/bin/../lib/gcc/arm-elf/4.4.2/../../../../arm-elf/lib/thumb/thumb2\libc.a(lib_a-refill.o)
 .debug_aranges
                0x000007e0       0x20 c:/apps/yagarto/bin/../lib/gcc/arm-elf/4.4.2/../../../../arm-elf/lib/thumb/thumb2\libc.a(lib_a-sbrkr.o)
 .debug_aranges
                0x00000800       0x20 c:/apps/yagarto/bin/../lib/gcc/arm-elf/4.4.2/../../../../arm-elf/lib/thumb/thumb2\libc.a(lib_a-stdio.o)
 .debug_aranges
                0x00000820       0x20 c:/apps/yagarto/bin/../lib/gcc/arm-elf/4.4.2/../../../../arm-elf/lib/thumb/thumb2\libc.a(lib_a-strcmp.o)
 .debug_aranges
                0x00000840       0x20 c:/apps/yagarto/bin/../lib/gcc/arm-elf/4.4.2/../../../../arm-elf/lib/thumb/thumb2\libc.a(lib_a-vfprintf.o)
 .debug_aranges
                0x00000860       0x20 c:/apps/yagarto/bin/../lib/gcc/arm-elf/4.4.2/../../../../arm-elf/lib/thumb/thumb2\libc.a(lib_a-writer.o)
 .debug_aranges
                0x00000880       0x20 c:/apps/yagarto/bin/../lib/gcc/arm-elf/4.4.2/../../../../arm-elf/lib/thumb/thumb2\libc.a(lib_a-wsetup.o)
 .debug_aranges
                0x000008a0       0x20 c:/apps/yagarto/bin/../lib/gcc/arm-elf/4.4.2/../../../../arm-elf/lib/thumb/thumb2\libc.a(lib_a-closer.o)
 .debug_aranges
                0x000008c0       0x20 c:/apps/yagarto/bin/../lib/gcc/arm-elf/4.4.2/../../../../arm-elf/lib/thumb/thumb2\libc.a(lib_a-dtoa.o)
 .debug_aranges
                0x000008e0       0x20 c:/apps/yagarto/bin/../lib/gcc/arm-elf/4.4.2/../../../../arm-elf/lib/thumb/thumb2\libc.a(lib_a-fflush.o)
 .debug_aranges
                0x00000900       0x20 c:/apps/yagarto/bin/../lib/gcc/arm-elf/4.4.2/../../../../arm-elf/lib/thumb/thumb2\libc.a(lib_a-findfp.o)
 .debug_aranges
                0x00000920       0x20 c:/apps/yagarto/bin/../lib/gcc/arm-elf/4.4.2/../../../../arm-elf/lib/thumb/thumb2\libc.a(lib_a-flags.o)
 .debug_aranges
                0x00000940       0x20 c:/apps/yagarto/bin/../lib/gcc/arm-elf/4.4.2/../../../../arm-elf/lib/thumb/thumb2\libc.a(lib_a-freer.o)
 .debug_aranges
                0x00000960       0x20 c:/apps/yagarto/bin/../lib/gcc/arm-elf/4.4.2/../../../../arm-elf/lib/thumb/thumb2\libc.a(lib_a-fvwrite.o)
 .debug_aranges
                0x00000980       0x20 c:/apps/yagarto/bin/../lib/gcc/arm-elf/4.4.2/../../../../arm-elf/lib/thumb/thumb2\libc.a(lib_a-fwalk.o)
 .debug_aranges
                0x000009a0       0x20 c:/apps/yagarto/bin/../lib/gcc/arm-elf/4.4.2/../../../../arm-elf/lib/thumb/thumb2\libc.a(lib_a-isattyr.o)
 .debug_aranges
                0x000009c0       0x20 c:/apps/yagarto/bin/../lib/gcc/arm-elf/4.4.2/../../../../arm-elf/lib/thumb/thumb2\libc.a(lib_a-locale.o)
 .debug_aranges
                0x000009e0       0x20 c:/apps/yagarto/bin/../lib/gcc/arm-elf/4.4.2/../../../../arm-elf/lib/thumb/thumb2\libc.a(lib_a-lseekr.o)
 .debug_aranges
                0x00000a00       0x20 c:/apps/yagarto/bin/../lib/gcc/arm-elf/4.4.2/../../../../arm-elf/lib/thumb/thumb2\libc.a(lib_a-malloc.o)
 .debug_aranges
                0x00000a20       0x20 c:/apps/yagarto/bin/../lib/gcc/arm-elf/4.4.2/../../../../arm-elf/lib/thumb/thumb2\libc.a(lib_a-memchr.o)
 .debug_aranges
                0x00000a40       0x20 c:/apps/yagarto/bin/../lib/gcc/arm-elf/4.4.2/../../../../arm-elf/lib/thumb/thumb2\libc.a(lib_a-memcpy.o)
 .debug_aranges
                0x00000a60       0x20 c:/apps/yagarto/bin/../lib/gcc/arm-elf/4.4.2/../../../../arm-elf/lib/thumb/thumb2\libc.a(lib_a-memmove.o)
 .debug_aranges
                0x00000a80       0x20 c:/apps/yagarto/bin/../lib/gcc/arm-elf/4.4.2/../../../../arm-elf/lib/thumb/thumb2\libc.a(lib_a-mprec.o)
 .debug_aranges
                0x00000aa0       0x20 c:/apps/yagarto/bin/../lib/gcc/arm-elf/4.4.2/../../../../arm-elf/lib/thumb/thumb2\libc.a(lib_a-readr.o)
 .debug_aranges
                0x00000ac0       0x20 c:/apps/yagarto/bin/../lib/gcc/arm-elf/4.4.2/../../../../arm-elf/lib/thumb/thumb2\libc.a(lib_a-reallocr.o)
 .debug_aranges
                0x00000ae0       0x20 c:/apps/yagarto/bin/../lib/gcc/arm-elf/4.4.2/../../../../arm-elf/lib/thumb/thumb2\libc.a(lib_a-s_isinfd.o)
 .debug_aranges
                0x00000b00       0x20 c:/apps/yagarto/bin/../lib/gcc/arm-elf/4.4.2/../../../../arm-elf/lib/thumb/thumb2\libc.a(lib_a-s_isnand.o)
 .debug_aranges
                0x00000b20       0x20 c:/apps/yagarto/bin/../lib/gcc/arm-elf/4.4.2/../../../../arm-elf/lib/thumb/thumb2\libc.a(lib_a-strlen.o)
 .debug_aranges
                0x00000b40       0x20 c:/apps/yagarto/bin/../lib/gcc/arm-elf/4.4.2/../../../../arm-elf/lib/thumb/thumb2\libc.a(lib_a-callocr.o)
 .debug_aranges
                0x00000b60       0x20 c:/apps/yagarto/bin/../lib/gcc/arm-elf/4.4.2/../../../../arm-elf/lib/thumb/thumb2\libc.a(lib_a-fclose.o)
 .debug_aranges
                0x00000b80       0x20 c:/apps/yagarto/bin/../lib/gcc/arm-elf/4.4.2/thumb/thumb2\libgcc.a(_udivsi3.o)
 .debug_aranges
                0x00000ba0       0x20 c:/apps/yagarto/bin/../lib/gcc/arm-elf/4.4.2/thumb/thumb2\libgcc.a(_dvmd_tls.o)
 .debug_aranges
                0x00000bc0       0x20 c:/apps/yagarto/bin/../lib/gcc/arm-elf/4.4.2/thumb/thumb2\libgcc.a(_arm_addsubdf3.o)
 .debug_aranges
                0x00000be0       0x20 c:/apps/yagarto/bin/../lib/gcc/arm-elf/4.4.2/thumb/thumb2\libgcc.a(_arm_muldivdf3.o)
 .debug_aranges
                0x00000c00       0x20 c:/apps/yagarto/bin/../lib/gcc/arm-elf/4.4.2/thumb/thumb2\libgcc.a(_arm_cmpdf2.o)
 .debug_aranges
                0x00000c20       0x20 c:/apps/yagarto/bin/../lib/gcc/arm-elf/4.4.2/thumb/thumb2\libgcc.a(_arm_fixdfsi.o)

.debug_str      0x00000000     0x97a9
 .debug_str     0x00000000      0x28c ./lib/./STM32F10x_StdPeriph_Driver/src/misc.o
                                0x2f9 (size before relaxing)
 .debug_str     0x0000028c       0x7b ./lib/./STM32F10x_StdPeriph_Driver/src/stm32f10x_dbgmcu.o
                                0x14e (size before relaxing)
 .debug_str     0x00000307      0x3a9 ./lib/./STM32F10x_StdPeriph_Driver/src/stm32f10x_flash.o
                                0x4b4 (size before relaxing)
 .debug_str     0x000006b0      0x35d ./lib/./STM32F10x_StdPeriph_Driver/src/stm32f10x_gpio.o
                                0x452 (size before relaxing)
 .debug_str     0x00000a0d      0x42c ./lib/./STM32F10x_StdPeriph_Driver/src/stm32f10x_rcc.o
                                0x55b (size before relaxing)
 .debug_str     0x00000e39      0x46f ./lib/./STM32F10x_StdPeriph_Driver/src/stm32f10x_sdio.o
                                0x584 (size before relaxing)
 .debug_str     0x000012a8      0x400 ./lib/./STM32F10x_StdPeriph_Driver/src/stm32f10x_usart.o
                                0x5b9 (size before relaxing)
 .debug_str     0x000016a8      0x3a7 ./lib/./STM32F10x_StdPeriph_Driver/src/stm32f10x_i2c.o
                                0x594 (size before relaxing)
 .debug_str     0x00001a4f      0x1d9 ./lib/./STM32F10x_StdPeriph_Driver/src/stm32f10x_dma.o
                                0x2e0 (size before relaxing)
 .debug_str     0x00001c28      0x520 ./lib/./STM32F10x_StdPeriph_Driver/src/stm32f10x_adc.o
                                0x651 (size before relaxing)
 .debug_str     0x00002148      0x1f5 ./lib/./STM32F10x_StdPeriph_Driver/src/stm32f10x_dac.o
                                0x2f1 (size before relaxing)
 .debug_str     0x0000233d      0xb6f ./lib/./STM32F10x_StdPeriph_Driver/src/stm32f10x_tim.o
                                0xd33 (size before relaxing)
 .debug_str     0x00002eac      0x548 ./lib/./STM32F10x_StdPeriph_Driver/src/stm32f10x_fsmc.o
                                0x65b (size before relaxing)
 .debug_str     0x000033f4      0x1ac ./lib/./STM32F10x_StdPeriph_Driver/src/stm32f10x_exti.o
                                0x2a7 (size before relaxing)
 .debug_str     0x000035a0      0x312 ./lib/./STM32F10x_StdPeriph_Driver/src/stm32f10x_bkp.o
                                0x4ff (size before relaxing)
 .debug_str     0x000038b2      0x108 ./lib/./STM32F10x_StdPeriph_Driver/src/stm32f10x_pwr.o
                                0x205 (size before relaxing)
 .debug_str     0x000039ba       0xab ./lib/./uC-CPU/Cortex-M3/GCC/cpu_c.o
                                0x145 (size before relaxing)
 .debug_str     0x00003a65      0x379 ./lib/./uCOS-II/Ports/ARM-Cortex-M3/Generic/GCC/os_cpu_c.o
                                0x436 (size before relaxing)
 .debug_str     0x00003dde      0x4a1 ./lib/./uCOS-II/Ports/ARM-Cortex-M3/Generic/GCC/os_dbg.o
                                0x76e (size before relaxing)
 .debug_str     0x0000427f      0x43f ./lib/./uCOS-II/Source/os_core.o
                                0x97c (size before relaxing)
 .debug_str     0x000046be      0x140 ./lib/./uCOS-II/Source/os_flag.o
                                0x4e5 (size before relaxing)
 .debug_str     0x000047fe       0xc7 ./lib/./uCOS-II/Source/os_mbox.o
                                0x406 (size before relaxing)
 .debug_str     0x000048c5       0xd4 ./lib/./uCOS-II/Source/os_mem.o
                                0x1ee (size before relaxing)
 .debug_str     0x00004999       0xcc ./lib/./uCOS-II/Source/os_mutex.o
                                0x445 (size before relaxing)
 .debug_str     0x00004a65       0xb2 ./lib/./uCOS-II/Source/os_q.o
                                0x468 (size before relaxing)
 .debug_str     0x00004b17       0x9f ./lib/./uCOS-II/Source/os_sem.o
                                0x3f1 (size before relaxing)
 .debug_str     0x00004bb6      0x11d ./lib/./uCOS-II/Source/os_task.o
                                0x4f4 (size before relaxing)
 .debug_str     0x00004cd3       0x7d ./lib/./uCOS-II/Source/os_time.o
                                0x394 (size before relaxing)
 .debug_str     0x00004d50      0x136 ./lib/./uCOS-II/Source/os_tmr.o
                                0x55f (size before relaxing)
 .debug_str     0x00004e86      0x7a6 ./lib/./STM32_USB-FS-Device_Driver/src/usb_core.o
                                0x9af (size before relaxing)
 .debug_str     0x0000562c       0x67 ./lib/./STM32_USB-FS-Device_Driver/src/usb_init.o
                                0x48e (size before relaxing)
 .debug_str     0x00005693       0x5f ./lib/./STM32_USB-FS-Device_Driver/src/usb_int.o
                                0x142 (size before relaxing)
 .debug_str     0x000056f2       0x87 ./lib/./STM32_USB-FS-Device_Driver/src/usb_mem.o
                                0x143 (size before relaxing)
 .debug_str     0x00005779      0x3f3 ./lib/./STM32_USB-FS-Device_Driver/src/usb_regs.o
                                0x4cb (size before relaxing)
 .debug_str     0x00005b6c       0x7a ./lib/./STM32_USB-FS-Device_Driver/src/usb_sil.o
                                0x151 (size before relaxing)
 .debug_str     0x00005be6      0x3bc ./src/application/app.o
                                0x4f4 (size before relaxing)
 .debug_str     0x00005fa2      0xd8d ./src/bsp/bsp.o
                               0x1419 (size before relaxing)
 .debug_str     0x00006d2f       0x85 ./src/bsp/bsp_globals.o
                                0x164 (size before relaxing)
 .debug_str     0x00006db4       0x79 ./src/bsp/bsp_utils.o
                                0x159 (size before relaxing)
 .debug_str     0x00006e2d      0x505 ./src/bsp/app_int.o
                                0x65e (size before relaxing)
 .debug_str     0x00007332       0x2c ./src/bsp/app_vect.o
                                 0xad (size before relaxing)
 .debug_str     0x0000735e       0x81 ./src/bsp/stm32f10x_startup.o
                                 0xc3 (size before relaxing)
 .debug_str     0x000073df      0x274 ./src/bsp/stm32f10x_syscall.o
                                0x411 (size before relaxing)
 .debug_str     0x00007653      0x3e3 ./src/bsp/sdcard.o
                                0xe94 (size before relaxing)
 .debug_str     0x00007a36       0xd0 ./src/usb/usb_desc.o
                                0x187 (size before relaxing)
 .debug_str     0x00007b06      0x103 ./src/usb/usb_endp.o
                                0x1d8 (size before relaxing)
 .debug_str     0x00007c09       0x28 ./src/usb/usb_istr.o
                                0x236 (size before relaxing)
 .debug_str     0x00007c31      0x293 ./src/usb/usb_prop.o
                                0x891 (size before relaxing)
 .debug_str     0x00007ec4       0xd9 ./src/usb/usb_pwr.o
                                0x287 (size before relaxing)
 .debug_str     0x00007f9d      0x107 ./src/usb/hw_config.o
                                0x911 (size before relaxing)
 .debug_str     0x000080a4       0xb8 ./src/sram/fsmc_sram.o
                                0x48d (size before relaxing)
 .debug_str     0x0000815c       0xa0 c:/apps/yagarto/bin/../lib/gcc/arm-elf/4.4.2/../../../../arm-elf/lib/thumb/thumb2\libc.a(lib_a-fopen.o)
                                0x4fd (size before relaxing)
 .debug_str     0x000081fc       0x6b c:/apps/yagarto/bin/../lib/gcc/arm-elf/4.4.2/../../../../arm-elf/lib/thumb/thumb2\libc.a(lib_a-fprintf.o)
                                0x515 (size before relaxing)
 .debug_str     0x00008267       0xb4 c:/apps/yagarto/bin/../lib/gcc/arm-elf/4.4.2/../../../../arm-elf/lib/thumb/thumb2\libc.a(lib_a-fseek.o)
                                0x649 (size before relaxing)
 .debug_str     0x0000831b       0x94 c:/apps/yagarto/bin/../lib/gcc/arm-elf/4.4.2/../../../../arm-elf/lib/thumb/thumb2\libc.a(lib_a-fstatr.o)
                                0x5c9 (size before relaxing)
 .debug_str     0x000083af       0x8b c:/apps/yagarto/bin/../lib/gcc/arm-elf/4.4.2/../../../../arm-elf/lib/thumb/thumb2\libc.a(lib_a-fwrite.o)
                                0x576 (size before relaxing)
 .debug_str     0x0000843a       0x5d c:/apps/yagarto/bin/../lib/gcc/arm-elf/4.4.2/../../../../arm-elf/lib/thumb/thumb2\libc.a(lib_a-impure.o)
                                0x531 (size before relaxing)
 .debug_str     0x00008497       0x57 c:/apps/yagarto/bin/../lib/gcc/arm-elf/4.4.2/../../../../arm-elf/lib/thumb/thumb2\libc.a(lib_a-makebuf.o)
                                0x5de (size before relaxing)
 .debug_str     0x000084ee      0x25a c:/apps/yagarto/bin/../lib/gcc/arm-elf/4.4.2/../../../../arm-elf/lib/thumb/thumb2\libc.a(lib_a-mallocr.o)
                                0x6c9 (size before relaxing)
 .debug_str     0x00008748       0xa1 c:/apps/yagarto/bin/../lib/gcc/arm-elf/4.4.2/../../../../arm-elf/lib/thumb/thumb2\libc.a(lib_a-memset.o)
                                0x144 (size before relaxing)
 .debug_str     0x000087e9       0x71 c:/apps/yagarto/bin/../lib/gcc/arm-elf/4.4.2/../../../../arm-elf/lib/thumb/thumb2\libc.a(lib_a-mlock.o)
                                0x4fb (size before relaxing)
 .debug_str     0x0000885a       0x45 c:/apps/yagarto/bin/../lib/gcc/arm-elf/4.4.2/../../../../arm-elf/lib/thumb/thumb2\libc.a(lib_a-openr.o)
                                0x4e4 (size before relaxing)
 .debug_str     0x0000889f       0x43 c:/apps/yagarto/bin/../lib/gcc/arm-elf/4.4.2/../../../../arm-elf/lib/thumb/thumb2\libc.a(lib_a-rand.o)
                                0x4e3 (size before relaxing)
 .debug_str     0x000088e2       0x77 c:/apps/yagarto/bin/../lib/gcc/arm-elf/4.4.2/../../../../arm-elf/lib/thumb/thumb2\libc.a(lib_a-reent.o)
                                0x517 (size before relaxing)
 .debug_str     0x00008959       0x51 c:/apps/yagarto/bin/../lib/gcc/arm-elf/4.4.2/../../../../arm-elf/lib/thumb/thumb2\libc.a(lib_a-refill.o)
                                0x531 (size before relaxing)
 .debug_str     0x000089aa       0x4f c:/apps/yagarto/bin/../lib/gcc/arm-elf/4.4.2/../../../../arm-elf/lib/thumb/thumb2\libc.a(lib_a-sbrkr.o)
                                0x4e3 (size before relaxing)
 .debug_str     0x000089f9       0x5f c:/apps/yagarto/bin/../lib/gcc/arm-elf/4.4.2/../../../../arm-elf/lib/thumb/thumb2\libc.a(lib_a-stdio.o)
                                0x509 (size before relaxing)
 .debug_str     0x00008a58       0x46 c:/apps/yagarto/bin/../lib/gcc/arm-elf/4.4.2/../../../../arm-elf/lib/thumb/thumb2\libc.a(lib_a-strcmp.o)
                                0x129 (size before relaxing)
 .debug_str     0x00008a9e      0x16e c:/apps/yagarto/bin/../lib/gcc/arm-elf/4.4.2/../../../../arm-elf/lib/thumb/thumb2\libc.a(lib_a-vfprintf.o)
                                0x70b (size before relaxing)
 .debug_str     0x00008c0c       0x50 c:/apps/yagarto/bin/../lib/gcc/arm-elf/4.4.2/../../../../arm-elf/lib/thumb/thumb2\libc.a(lib_a-writer.o)
                                0x4e6 (size before relaxing)
 .debug_str     0x00008c5c       0x4a c:/apps/yagarto/bin/../lib/gcc/arm-elf/4.4.2/../../../../arm-elf/lib/thumb/thumb2\libc.a(lib_a-wsetup.o)
                                0x523 (size before relaxing)
 .debug_str     0x00008ca6       0x47 c:/apps/yagarto/bin/../lib/gcc/arm-elf/4.4.2/../../../../arm-elf/lib/thumb/thumb2\libc.a(lib_a-closer.o)
                                0x4d6 (size before relaxing)
 .debug_str     0x00008ced      0x106 c:/apps/yagarto/bin/../lib/gcc/arm-elf/4.4.2/../../../../arm-elf/lib/thumb/thumb2\libc.a(lib_a-dtoa.o)
                                0x5d9 (size before relaxing)
 .debug_str     0x00008df3       0x4f c:/apps/yagarto/bin/../lib/gcc/arm-elf/4.4.2/../../../../arm-elf/lib/thumb/thumb2\libc.a(lib_a-fflush.o)
                                0x549 (size before relaxing)
 .debug_str     0x00008e42      0x106 c:/apps/yagarto/bin/../lib/gcc/arm-elf/4.4.2/../../../../arm-elf/lib/thumb/thumb2\libc.a(lib_a-findfp.o)
                                0x60b (size before relaxing)
 .debug_str     0x00008f48       0x4b c:/apps/yagarto/bin/../lib/gcc/arm-elf/4.4.2/../../../../arm-elf/lib/thumb/thumb2\libc.a(lib_a-flags.o)
                                0x4d9 (size before relaxing)
 .debug_str     0x00008f93       0x3c c:/apps/yagarto/bin/../lib/gcc/arm-elf/4.4.2/../../../../arm-elf/lib/thumb/thumb2\libc.a(lib_a-freer.o)
                                0x61b (size before relaxing)
 .debug_str     0x00008fcf       0x6a c:/apps/yagarto/bin/../lib/gcc/arm-elf/4.4.2/../../../../arm-elf/lib/thumb/thumb2\libc.a(lib_a-fvwrite.o)
                                0x53b (size before relaxing)
 .debug_str     0x00009039       0x62 c:/apps/yagarto/bin/../lib/gcc/arm-elf/4.4.2/../../../../arm-elf/lib/thumb/thumb2\libc.a(lib_a-fwalk.o)
                                0x50d (size before relaxing)
 .debug_str     0x0000909b       0x49 c:/apps/yagarto/bin/../lib/gcc/arm-elf/4.4.2/../../../../arm-elf/lib/thumb/thumb2\libc.a(lib_a-isattyr.o)
                                0x4d8 (size before relaxing)
 .debug_str     0x000090e4      0x1eb c:/apps/yagarto/bin/../lib/gcc/arm-elf/4.4.2/../../../../arm-elf/lib/thumb/thumb2\libc.a(lib_a-locale.o)
                                0x681 (size before relaxing)
 .debug_str     0x000092cf       0x47 c:/apps/yagarto/bin/../lib/gcc/arm-elf/4.4.2/../../../../arm-elf/lib/thumb/thumb2\libc.a(lib_a-lseekr.o)
                                0x4e4 (size before relaxing)
 .debug_str     0x00009316       0x52 c:/apps/yagarto/bin/../lib/gcc/arm-elf/4.4.2/../../../../arm-elf/lib/thumb/thumb2\libc.a(lib_a-malloc.o)
                                0x4f4 (size before relaxing)
 .debug_str     0x00009368       0x54 c:/apps/yagarto/bin/../lib/gcc/arm-elf/4.4.2/../../../../arm-elf/lib/thumb/thumb2\libc.a(lib_a-memchr.o)
                                0x14a (size before relaxing)
 .debug_str     0x000093bc       0x6d c:/apps/yagarto/bin/../lib/gcc/arm-elf/4.4.2/../../../../arm-elf/lib/thumb/thumb2\libc.a(lib_a-memcpy.o)
                                0x157 (size before relaxing)
 .debug_str     0x00009429       0x51 c:/apps/yagarto/bin/../lib/gcc/arm-elf/4.4.2/../../../../arm-elf/lib/thumb/thumb2\libc.a(lib_a-memmove.o)
                                0x163 (size before relaxing)
 .debug_str     0x0000947a       0xfc c:/apps/yagarto/bin/../lib/gcc/arm-elf/4.4.2/../../../../arm-elf/lib/thumb/thumb2\libc.a(lib_a-mprec.o)
                                0x5e6 (size before relaxing)
 .debug_str     0x00009576       0x45 c:/apps/yagarto/bin/../lib/gcc/arm-elf/4.4.2/../../../../arm-elf/lib/thumb/thumb2\libc.a(lib_a-readr.o)
                                0x4e4 (size before relaxing)
 .debug_str     0x000095bb       0x54 c:/apps/yagarto/bin/../lib/gcc/arm-elf/4.4.2/../../../../arm-elf/lib/thumb/thumb2\libc.a(lib_a-reallocr.o)
                                0x59b (size before relaxing)
 .debug_str     0x0000960f       0xa2 c:/apps/yagarto/bin/../lib/gcc/arm-elf/4.4.2/../../../../arm-elf/lib/thumb/thumb2\libc.a(lib_a-s_isinfd.o)
                                0x150 (size before relaxing)
 .debug_str     0x000096b1       0x4a c:/apps/yagarto/bin/../lib/gcc/arm-elf/4.4.2/../../../../arm-elf/lib/thumb/thumb2\libc.a(lib_a-s_isnand.o)
                                0x150 (size before relaxing)
 .debug_str     0x000096fb       0x46 c:/apps/yagarto/bin/../lib/gcc/arm-elf/4.4.2/../../../../arm-elf/lib/thumb/thumb2\libc.a(lib_a-strlen.o)
                                0x143 (size before relaxing)
 .debug_str     0x00009741       0x19 c:/apps/yagarto/bin/../lib/gcc/arm-elf/4.4.2/../../../../arm-elf/lib/thumb/thumb2\libc.a(lib_a-callocr.o)
                                0x51a (size before relaxing)
 .debug_str     0x0000975a       0x4f c:/apps/yagarto/bin/../lib/gcc/arm-elf/4.4.2/../../../../arm-elf/lib/thumb/thumb2\libc.a(lib_a-fclose.o)
                                0x52d (size before relaxing)

.comment        0x00000000      0x69c
 .comment       0x00000000       0x12 ./lib/./STM32F10x_StdPeriph_Driver/src/misc.o
 .comment       0x00000012       0x12 ./lib/./STM32F10x_StdPeriph_Driver/src/stm32f10x_dbgmcu.o
 .comment       0x00000024       0x12 ./lib/./STM32F10x_StdPeriph_Driver/src/stm32f10x_flash.o
 .comment       0x00000036       0x12 ./lib/./STM32F10x_StdPeriph_Driver/src/stm32f10x_gpio.o
 .comment       0x00000048       0x12 ./lib/./STM32F10x_StdPeriph_Driver/src/stm32f10x_rcc.o
 .comment       0x0000005a       0x12 ./lib/./STM32F10x_StdPeriph_Driver/src/stm32f10x_sdio.o
 .comment       0x0000006c       0x12 ./lib/./STM32F10x_StdPeriph_Driver/src/stm32f10x_usart.o
 .comment       0x0000007e       0x12 ./lib/./STM32F10x_StdPeriph_Driver/src/stm32f10x_i2c.o
 .comment       0x00000090       0x12 ./lib/./STM32F10x_StdPeriph_Driver/src/stm32f10x_dma.o
 .comment       0x000000a2       0x12 ./lib/./STM32F10x_StdPeriph_Driver/src/stm32f10x_adc.o
 .comment       0x000000b4       0x12 ./lib/./STM32F10x_StdPeriph_Driver/src/stm32f10x_dac.o
 .comment       0x000000c6       0x12 ./lib/./STM32F10x_StdPeriph_Driver/src/stm32f10x_tim.o
 .comment       0x000000d8       0x12 ./lib/./STM32F10x_StdPeriph_Driver/src/stm32f10x_fsmc.o
 .comment       0x000000ea       0x12 ./lib/./STM32F10x_StdPeriph_Driver/src/stm32f10x_exti.o
 .comment       0x000000fc       0x12 ./lib/./STM32F10x_StdPeriph_Driver/src/stm32f10x_bkp.o
 .comment       0x0000010e       0x12 ./lib/./STM32F10x_StdPeriph_Driver/src/stm32f10x_pwr.o
 .comment       0x00000120       0x12 ./lib/./uC-CPU/Cortex-M3/GCC/cpu_c.o
 .comment       0x00000132       0x12 ./lib/./uCOS-II/Ports/ARM-Cortex-M3/Generic/GCC/os_cpu_c.o
 .comment       0x00000144       0x12 ./lib/./uCOS-II/Ports/ARM-Cortex-M3/Generic/GCC/os_dbg.o
 .comment       0x00000156       0x12 ./lib/./uCOS-II/Source/os_core.o
 .comment       0x00000168       0x12 ./lib/./uCOS-II/Source/os_flag.o
 .comment       0x0000017a       0x12 ./lib/./uCOS-II/Source/os_mbox.o
 .comment       0x0000018c       0x12 ./lib/./uCOS-II/Source/os_mem.o
 .comment       0x0000019e       0x12 ./lib/./uCOS-II/Source/os_mutex.o
 .comment       0x000001b0       0x12 ./lib/./uCOS-II/Source/os_q.o
 .comment       0x000001c2       0x12 ./lib/./uCOS-II/Source/os_sem.o
 .comment       0x000001d4       0x12 ./lib/./uCOS-II/Source/os_task.o
 .comment       0x000001e6       0x12 ./lib/./uCOS-II/Source/os_time.o
 .comment       0x000001f8       0x12 ./lib/./uCOS-II/Source/os_tmr.o
 .comment       0x0000020a       0x12 ./lib/./STM32_USB-FS-Device_Driver/src/usb_core.o
 .comment       0x0000021c       0x12 ./lib/./STM32_USB-FS-Device_Driver/src/usb_init.o
 .comment       0x0000022e       0x12 ./lib/./STM32_USB-FS-Device_Driver/src/usb_int.o
 .comment       0x00000240       0x12 ./lib/./STM32_USB-FS-Device_Driver/src/usb_mem.o
 .comment       0x00000252       0x12 ./lib/./STM32_USB-FS-Device_Driver/src/usb_regs.o
 .comment       0x00000264       0x12 ./lib/./STM32_USB-FS-Device_Driver/src/usb_sil.o
 .comment       0x00000276       0x12 ./src/application/app.o
 .comment       0x00000288       0x12 ./src/bsp/bsp.o
 .comment       0x0000029a       0x12 ./src/bsp/bsp_globals.o
 .comment       0x000002ac       0x12 ./src/bsp/bsp_utils.o
 .comment       0x000002be       0x12 ./src/bsp/app_int.o
 .comment       0x000002d0       0x12 ./src/bsp/app_vect.o
 .comment       0x000002e2       0x12 ./src/bsp/stm32f10x_startup.o
 .comment       0x000002f4       0x12 ./src/bsp/stm32f10x_syscall.o
 .comment       0x00000306       0x12 ./src/bsp/sdcard.o
 .comment       0x00000318       0x12 ./src/usb/usb_desc.o
 .comment       0x0000032a       0x12 ./src/usb/usb_endp.o
 .comment       0x0000033c       0x12 ./src/usb/usb_istr.o
 .comment       0x0000034e       0x12 ./src/usb/usb_prop.o
 .comment       0x00000360       0x12 ./src/usb/usb_pwr.o
 .comment       0x00000372       0x12 ./src/usb/hw_config.o
 .comment       0x00000384       0x12 ./src/sram/fsmc_sram.o
 .comment       0x00000396       0x12 c:/apps/yagarto/bin/../lib/gcc/arm-elf/4.4.2/../../../../arm-elf/lib/thumb/thumb2\libc.a(lib_a-fopen.o)
 .comment       0x000003a8       0x12 c:/apps/yagarto/bin/../lib/gcc/arm-elf/4.4.2/../../../../arm-elf/lib/thumb/thumb2\libc.a(lib_a-fprintf.o)
 .comment       0x000003ba       0x12 c:/apps/yagarto/bin/../lib/gcc/arm-elf/4.4.2/../../../../arm-elf/lib/thumb/thumb2\libc.a(lib_a-fseek.o)
 .comment       0x000003cc       0x12 c:/apps/yagarto/bin/../lib/gcc/arm-elf/4.4.2/../../../../arm-elf/lib/thumb/thumb2\libc.a(lib_a-fstatr.o)
 .comment       0x000003de       0x12 c:/apps/yagarto/bin/../lib/gcc/arm-elf/4.4.2/../../../../arm-elf/lib/thumb/thumb2\libc.a(lib_a-fwrite.o)
 .comment       0x000003f0       0x12 c:/apps/yagarto/bin/../lib/gcc/arm-elf/4.4.2/../../../../arm-elf/lib/thumb/thumb2\libc.a(lib_a-impure.o)
 .comment       0x00000402       0x12 c:/apps/yagarto/bin/../lib/gcc/arm-elf/4.4.2/../../../../arm-elf/lib/thumb/thumb2\libc.a(lib_a-makebuf.o)
 .comment       0x00000414       0x12 c:/apps/yagarto/bin/../lib/gcc/arm-elf/4.4.2/../../../../arm-elf/lib/thumb/thumb2\libc.a(lib_a-mallocr.o)
 .comment       0x00000426       0x12 c:/apps/yagarto/bin/../lib/gcc/arm-elf/4.4.2/../../../../arm-elf/lib/thumb/thumb2\libc.a(lib_a-memset.o)
 .comment       0x00000438       0x12 c:/apps/yagarto/bin/../lib/gcc/arm-elf/4.4.2/../../../../arm-elf/lib/thumb/thumb2\libc.a(lib_a-mlock.o)
 .comment       0x0000044a       0x12 c:/apps/yagarto/bin/../lib/gcc/arm-elf/4.4.2/../../../../arm-elf/lib/thumb/thumb2\libc.a(lib_a-openr.o)
 .comment       0x0000045c       0x12 c:/apps/yagarto/bin/../lib/gcc/arm-elf/4.4.2/../../../../arm-elf/lib/thumb/thumb2\libc.a(lib_a-rand.o)
 .comment       0x0000046e       0x12 c:/apps/yagarto/bin/../lib/gcc/arm-elf/4.4.2/../../../../arm-elf/lib/thumb/thumb2\libc.a(lib_a-reent.o)
 .comment       0x00000480       0x12 c:/apps/yagarto/bin/../lib/gcc/arm-elf/4.4.2/../../../../arm-elf/lib/thumb/thumb2\libc.a(lib_a-refill.o)
 .comment       0x00000492       0x12 c:/apps/yagarto/bin/../lib/gcc/arm-elf/4.4.2/../../../../arm-elf/lib/thumb/thumb2\libc.a(lib_a-sbrkr.o)
 .comment       0x000004a4       0x12 c:/apps/yagarto/bin/../lib/gcc/arm-elf/4.4.2/../../../../arm-elf/lib/thumb/thumb2\libc.a(lib_a-stdio.o)
 .comment       0x000004b6       0x12 c:/apps/yagarto/bin/../lib/gcc/arm-elf/4.4.2/../../../../arm-elf/lib/thumb/thumb2\libc.a(lib_a-strcmp.o)
 .comment       0x000004c8       0x12 c:/apps/yagarto/bin/../lib/gcc/arm-elf/4.4.2/../../../../arm-elf/lib/thumb/thumb2\libc.a(lib_a-vfprintf.o)
 .comment       0x000004da       0x12 c:/apps/yagarto/bin/../lib/gcc/arm-elf/4.4.2/../../../../arm-elf/lib/thumb/thumb2\libc.a(lib_a-writer.o)
 .comment       0x000004ec       0x12 c:/apps/yagarto/bin/../lib/gcc/arm-elf/4.4.2/../../../../arm-elf/lib/thumb/thumb2\libc.a(lib_a-wsetup.o)
 .comment       0x000004fe       0x12 c:/apps/yagarto/bin/../lib/gcc/arm-elf/4.4.2/../../../../arm-elf/lib/thumb/thumb2\libc.a(lib_a-closer.o)
 .comment       0x00000510       0x12 c:/apps/yagarto/bin/../lib/gcc/arm-elf/4.4.2/../../../../arm-elf/lib/thumb/thumb2\libc.a(lib_a-dtoa.o)
 .comment       0x00000522       0x12 c:/apps/yagarto/bin/../lib/gcc/arm-elf/4.4.2/../../../../arm-elf/lib/thumb/thumb2\libc.a(lib_a-fflush.o)
 .comment       0x00000534       0x12 c:/apps/yagarto/bin/../lib/gcc/arm-elf/4.4.2/../../../../arm-elf/lib/thumb/thumb2\libc.a(lib_a-findfp.o)
 .comment       0x00000546       0x12 c:/apps/yagarto/bin/../lib/gcc/arm-elf/4.4.2/../../../../arm-elf/lib/thumb/thumb2\libc.a(lib_a-flags.o)
 .comment       0x00000558       0x12 c:/apps/yagarto/bin/../lib/gcc/arm-elf/4.4.2/../../../../arm-elf/lib/thumb/thumb2\libc.a(lib_a-freer.o)
 .comment       0x0000056a       0x12 c:/apps/yagarto/bin/../lib/gcc/arm-elf/4.4.2/../../../../arm-elf/lib/thumb/thumb2\libc.a(lib_a-fvwrite.o)
 .comment       0x0000057c       0x12 c:/apps/yagarto/bin/../lib/gcc/arm-elf/4.4.2/../../../../arm-elf/lib/thumb/thumb2\libc.a(lib_a-fwalk.o)
 .comment       0x0000058e       0x12 c:/apps/yagarto/bin/../lib/gcc/arm-elf/4.4.2/../../../../arm-elf/lib/thumb/thumb2\libc.a(lib_a-isattyr.o)
 .comment       0x000005a0       0x12 c:/apps/yagarto/bin/../lib/gcc/arm-elf/4.4.2/../../../../arm-elf/lib/thumb/thumb2\libc.a(lib_a-locale.o)
 .comment       0x000005b2       0x12 c:/apps/yagarto/bin/../lib/gcc/arm-elf/4.4.2/../../../../arm-elf/lib/thumb/thumb2\libc.a(lib_a-lseekr.o)
 .comment       0x000005c4       0x12 c:/apps/yagarto/bin/../lib/gcc/arm-elf/4.4.2/../../../../arm-elf/lib/thumb/thumb2\libc.a(lib_a-malloc.o)
 .comment       0x000005d6       0x12 c:/apps/yagarto/bin/../lib/gcc/arm-elf/4.4.2/../../../../arm-elf/lib/thumb/thumb2\libc.a(lib_a-memchr.o)
 .comment       0x000005e8       0x12 c:/apps/yagarto/bin/../lib/gcc/arm-elf/4.4.2/../../../../arm-elf/lib/thumb/thumb2\libc.a(lib_a-memcpy.o)
 .comment       0x000005fa       0x12 c:/apps/yagarto/bin/../lib/gcc/arm-elf/4.4.2/../../../../arm-elf/lib/thumb/thumb2\libc.a(lib_a-memmove.o)
 .comment       0x0000060c       0x12 c:/apps/yagarto/bin/../lib/gcc/arm-elf/4.4.2/../../../../arm-elf/lib/thumb/thumb2\libc.a(lib_a-mprec.o)
 .comment       0x0000061e       0x12 c:/apps/yagarto/bin/../lib/gcc/arm-elf/4.4.2/../../../../arm-elf/lib/thumb/thumb2\libc.a(lib_a-readr.o)
 .comment       0x00000630       0x12 c:/apps/yagarto/bin/../lib/gcc/arm-elf/4.4.2/../../../../arm-elf/lib/thumb/thumb2\libc.a(lib_a-reallocr.o)
 .comment       0x00000642       0x12 c:/apps/yagarto/bin/../lib/gcc/arm-elf/4.4.2/../../../../arm-elf/lib/thumb/thumb2\libc.a(lib_a-s_isinfd.o)
 .comment       0x00000654       0x12 c:/apps/yagarto/bin/../lib/gcc/arm-elf/4.4.2/../../../../arm-elf/lib/thumb/thumb2\libc.a(lib_a-s_isnand.o)
 .comment       0x00000666       0x12 c:/apps/yagarto/bin/../lib/gcc/arm-elf/4.4.2/../../../../arm-elf/lib/thumb/thumb2\libc.a(lib_a-strlen.o)
 .comment       0x00000678       0x12 c:/apps/yagarto/bin/../lib/gcc/arm-elf/4.4.2/../../../../arm-elf/lib/thumb/thumb2\libc.a(lib_a-callocr.o)
 .comment       0x0000068a       0x12 c:/apps/yagarto/bin/../lib/gcc/arm-elf/4.4.2/../../../../arm-elf/lib/thumb/thumb2\libc.a(lib_a-fclose.o)

.ARM.attributes
                0x00000000       0x10
 .ARM.attributes
                0x00000000       0x10 ./lib/./STM32F10x_StdPeriph_Driver/src/misc.o
 .ARM.attributes
                0x00000010       0x10 ./lib/./STM32F10x_StdPeriph_Driver/src/stm32f10x_dbgmcu.o
 .ARM.attributes
                0x00000020       0x10 ./lib/./STM32F10x_StdPeriph_Driver/src/stm32f10x_flash.o
 .ARM.attributes
                0x00000030       0x10 ./lib/./STM32F10x_StdPeriph_Driver/src/stm32f10x_gpio.o
 .ARM.attributes
                0x00000040       0x10 ./lib/./STM32F10x_StdPeriph_Driver/src/stm32f10x_rcc.o
 .ARM.attributes
                0x00000050       0x10 ./lib/./STM32F10x_StdPeriph_Driver/src/stm32f10x_sdio.o
 .ARM.attributes
                0x00000060       0x10 ./lib/./STM32F10x_StdPeriph_Driver/src/stm32f10x_usart.o
 .ARM.attributes
                0x00000070       0x10 ./lib/./STM32F10x_StdPeriph_Driver/src/stm32f10x_i2c.o
 .ARM.attributes
                0x00000080       0x10 ./lib/./STM32F10x_StdPeriph_Driver/src/stm32f10x_dma.o
 .ARM.attributes
                0x00000090       0x10 ./lib/./STM32F10x_StdPeriph_Driver/src/stm32f10x_adc.o
 .ARM.attributes
                0x000000a0       0x10 ./lib/./STM32F10x_StdPeriph_Driver/src/stm32f10x_dac.o
 .ARM.attributes
                0x000000b0       0x10 ./lib/./STM32F10x_StdPeriph_Driver/src/stm32f10x_tim.o
 .ARM.attributes
                0x000000c0       0x10 ./lib/./STM32F10x_StdPeriph_Driver/src/stm32f10x_fsmc.o
 .ARM.attributes
                0x000000d0       0x10 ./lib/./STM32F10x_StdPeriph_Driver/src/stm32f10x_exti.o
 .ARM.attributes
                0x000000e0       0x10 ./lib/./STM32F10x_StdPeriph_Driver/src/stm32f10x_bkp.o
 .ARM.attributes
                0x000000f0       0x10 ./lib/./STM32F10x_StdPeriph_Driver/src/stm32f10x_pwr.o
 .ARM.attributes
                0x00000100       0x10 ./lib/./uC-CPU/Cortex-M3/GCC/cpu_c.o
 .ARM.attributes
                0x00000110       0x10 ./lib/./uCOS-II/Ports/ARM-Cortex-M3/Generic/GCC/os_cpu_c.o
 .ARM.attributes
                0x00000120       0x10 ./lib/./uCOS-II/Ports/ARM-Cortex-M3/Generic/GCC/os_dbg.o
 .ARM.attributes
                0x00000130       0x10 ./lib/./uCOS-II/Source/os_core.o
 .ARM.attributes
                0x00000140       0x10 ./lib/./uCOS-II/Source/os_flag.o
 .ARM.attributes
                0x00000150       0x10 ./lib/./uCOS-II/Source/os_mbox.o
 .ARM.attributes
                0x00000160       0x10 ./lib/./uCOS-II/Source/os_mem.o
 .ARM.attributes
                0x00000170       0x10 ./lib/./uCOS-II/Source/os_mutex.o
 .ARM.attributes
                0x00000180       0x10 ./lib/./uCOS-II/Source/os_q.o
 .ARM.attributes
                0x00000190       0x10 ./lib/./uCOS-II/Source/os_sem.o
 .ARM.attributes
                0x000001a0       0x10 ./lib/./uCOS-II/Source/os_task.o
 .ARM.attributes
                0x000001b0       0x10 ./lib/./uCOS-II/Source/os_time.o
 .ARM.attributes
                0x000001c0       0x10 ./lib/./uCOS-II/Source/os_tmr.o
 .ARM.attributes
                0x000001d0       0x10 ./lib/./STM32_USB-FS-Device_Driver/src/usb_core.o
 .ARM.attributes
                0x000001e0       0x10 ./lib/./STM32_USB-FS-Device_Driver/src/usb_init.o
 .ARM.attributes
                0x000001f0       0x10 ./lib/./STM32_USB-FS-Device_Driver/src/usb_int.o
 .ARM.attributes
                0x00000200       0x10 ./lib/./STM32_USB-FS-Device_Driver/src/usb_mem.o
 .ARM.attributes
                0x00000210       0x10 ./lib/./STM32_USB-FS-Device_Driver/src/usb_regs.o
 .ARM.attributes
                0x00000220       0x10 ./lib/./STM32_USB-FS-Device_Driver/src/usb_sil.o
 .ARM.attributes
                0x00000230       0x10 ./src/application/app.o
 .ARM.attributes
                0x00000240       0x10 ./src/bsp/bsp.o
 .ARM.attributes
                0x00000250       0x10 ./src/bsp/bsp_globals.o
 .ARM.attributes
                0x00000260       0x10 ./src/bsp/bsp_utils.o
 .ARM.attributes
                0x00000270       0x10 ./src/bsp/app_int.o
 .ARM.attributes
                0x00000280       0x10 ./src/bsp/app_vect.o
 .ARM.attributes
                0x00000290       0x10 ./src/bsp/stm32f10x_startup.o
 .ARM.attributes
                0x000002a0       0x10 ./src/bsp/stm32f10x_syscall.o
 .ARM.attributes
                0x000002b0       0x10 ./src/bsp/sdcard.o
 .ARM.attributes
                0x000002c0       0x10 ./src/usb/usb_desc.o
 .ARM.attributes
                0x000002d0       0x10 ./src/usb/usb_endp.o
 .ARM.attributes
                0x000002e0       0x10 ./src/usb/usb_istr.o
 .ARM.attributes
                0x000002f0       0x10 ./src/usb/usb_prop.o
 .ARM.attributes
                0x00000300       0x10 ./src/usb/usb_pwr.o
 .ARM.attributes
                0x00000310       0x10 ./src/usb/hw_config.o
 .ARM.attributes
                0x00000320       0x10 ./src/sram/fsmc_sram.o
 .ARM.attributes
                0x00000330       0x10 ./lib/./uC-CPU/Cortex-M3/GCC/cpu_a.o
 .ARM.attributes
                0x00000340       0x10 ./lib/./uCOS-II/Ports/ARM-Cortex-M3/Generic/GCC/os_cpu_a.o
 .ARM.attributes
                0x00000350       0x10 c:/apps/yagarto/bin/../lib/gcc/arm-elf/4.4.2/../../../../arm-elf/lib/thumb/thumb2\libc.a(lib_a-fopen.o)
 .ARM.attributes
                0x00000360       0x10 c:/apps/yagarto/bin/../lib/gcc/arm-elf/4.4.2/../../../../arm-elf/lib/thumb/thumb2\libc.a(lib_a-fprintf.o)
 .ARM.attributes
                0x00000370       0x10 c:/apps/yagarto/bin/../lib/gcc/arm-elf/4.4.2/../../../../arm-elf/lib/thumb/thumb2\libc.a(lib_a-fseek.o)
 .ARM.attributes
                0x00000380       0x10 c:/apps/yagarto/bin/../lib/gcc/arm-elf/4.4.2/../../../../arm-elf/lib/thumb/thumb2\libc.a(lib_a-fstatr.o)
 .ARM.attributes
                0x00000390       0x10 c:/apps/yagarto/bin/../lib/gcc/arm-elf/4.4.2/../../../../arm-elf/lib/thumb/thumb2\libc.a(lib_a-fwrite.o)
 .ARM.attributes
                0x000003a0       0x10 c:/apps/yagarto/bin/../lib/gcc/arm-elf/4.4.2/../../../../arm-elf/lib/thumb/thumb2\libc.a(lib_a-impure.o)
 .ARM.attributes
                0x000003b0       0x10 c:/apps/yagarto/bin/../lib/gcc/arm-elf/4.4.2/../../../../arm-elf/lib/thumb/thumb2\libc.a(lib_a-makebuf.o)
 .ARM.attributes
                0x000003c0       0x10 c:/apps/yagarto/bin/../lib/gcc/arm-elf/4.4.2/../../../../arm-elf/lib/thumb/thumb2\libc.a(lib_a-mallocr.o)
 .ARM.attributes
                0x000003d0       0x10 c:/apps/yagarto/bin/../lib/gcc/arm-elf/4.4.2/../../../../arm-elf/lib/thumb/thumb2\libc.a(lib_a-memset.o)
 .ARM.attributes
                0x000003e0       0x10 c:/apps/yagarto/bin/../lib/gcc/arm-elf/4.4.2/../../../../arm-elf/lib/thumb/thumb2\libc.a(lib_a-mlock.o)
 .ARM.attributes
                0x000003f0       0x10 c:/apps/yagarto/bin/../lib/gcc/arm-elf/4.4.2/../../../../arm-elf/lib/thumb/thumb2\libc.a(lib_a-openr.o)
 .ARM.attributes
                0x00000400       0x10 c:/apps/yagarto/bin/../lib/gcc/arm-elf/4.4.2/../../../../arm-elf/lib/thumb/thumb2\libc.a(lib_a-rand.o)
 .ARM.attributes
                0x00000410       0x10 c:/apps/yagarto/bin/../lib/gcc/arm-elf/4.4.2/../../../../arm-elf/lib/thumb/thumb2\libc.a(lib_a-reent.o)
 .ARM.attributes
                0x00000420       0x10 c:/apps/yagarto/bin/../lib/gcc/arm-elf/4.4.2/../../../../arm-elf/lib/thumb/thumb2\libc.a(lib_a-refill.o)
 .ARM.attributes
                0x00000430       0x10 c:/apps/yagarto/bin/../lib/gcc/arm-elf/4.4.2/../../../../arm-elf/lib/thumb/thumb2\libc.a(lib_a-sbrkr.o)
 .ARM.attributes
                0x00000440       0x10 c:/apps/yagarto/bin/../lib/gcc/arm-elf/4.4.2/../../../../arm-elf/lib/thumb/thumb2\libc.a(lib_a-stdio.o)
 .ARM.attributes
                0x00000450       0x10 c:/apps/yagarto/bin/../lib/gcc/arm-elf/4.4.2/../../../../arm-elf/lib/thumb/thumb2\libc.a(lib_a-strcmp.o)
 .ARM.attributes
                0x00000460       0x10 c:/apps/yagarto/bin/../lib/gcc/arm-elf/4.4.2/../../../../arm-elf/lib/thumb/thumb2\libc.a(lib_a-vfprintf.o)
 .ARM.attributes
                0x00000470       0x10 c:/apps/yagarto/bin/../lib/gcc/arm-elf/4.4.2/../../../../arm-elf/lib/thumb/thumb2\libc.a(lib_a-writer.o)
 .ARM.attributes
                0x00000480       0x10 c:/apps/yagarto/bin/../lib/gcc/arm-elf/4.4.2/../../../../arm-elf/lib/thumb/thumb2\libc.a(lib_a-wsetup.o)
 .ARM.attributes
                0x00000490       0x10 c:/apps/yagarto/bin/../lib/gcc/arm-elf/4.4.2/../../../../arm-elf/lib/thumb/thumb2\libc.a(lib_a-closer.o)
 .ARM.attributes
                0x000004a0       0x10 c:/apps/yagarto/bin/../lib/gcc/arm-elf/4.4.2/../../../../arm-elf/lib/thumb/thumb2\libc.a(lib_a-dtoa.o)
 .ARM.attributes
                0x000004b0       0x10 c:/apps/yagarto/bin/../lib/gcc/arm-elf/4.4.2/../../../../arm-elf/lib/thumb/thumb2\libc.a(lib_a-fflush.o)
 .ARM.attributes
                0x000004c0       0x10 c:/apps/yagarto/bin/../lib/gcc/arm-elf/4.4.2/../../../../arm-elf/lib/thumb/thumb2\libc.a(lib_a-findfp.o)
 .ARM.attributes
                0x000004d0       0x10 c:/apps/yagarto/bin/../lib/gcc/arm-elf/4.4.2/../../../../arm-elf/lib/thumb/thumb2\libc.a(lib_a-flags.o)
 .ARM.attributes
                0x000004e0       0x10 c:/apps/yagarto/bin/../lib/gcc/arm-elf/4.4.2/../../../../arm-elf/lib/thumb/thumb2\libc.a(lib_a-freer.o)
 .ARM.attributes
                0x000004f0       0x10 c:/apps/yagarto/bin/../lib/gcc/arm-elf/4.4.2/../../../../arm-elf/lib/thumb/thumb2\libc.a(lib_a-fvwrite.o)
 .ARM.attributes
                0x00000500       0x10 c:/apps/yagarto/bin/../lib/gcc/arm-elf/4.4.2/../../../../arm-elf/lib/thumb/thumb2\libc.a(lib_a-fwalk.o)
 .ARM.attributes
                0x00000510       0x10 c:/apps/yagarto/bin/../lib/gcc/arm-elf/4.4.2/../../../../arm-elf/lib/thumb/thumb2\libc.a(lib_a-isattyr.o)
 .ARM.attributes
                0x00000520       0x10 c:/apps/yagarto/bin/../lib/gcc/arm-elf/4.4.2/../../../../arm-elf/lib/thumb/thumb2\libc.a(lib_a-locale.o)
 .ARM.attributes
                0x00000530       0x10 c:/apps/yagarto/bin/../lib/gcc/arm-elf/4.4.2/../../../../arm-elf/lib/thumb/thumb2\libc.a(lib_a-lseekr.o)
 .ARM.attributes
                0x00000540       0x10 c:/apps/yagarto/bin/../lib/gcc/arm-elf/4.4.2/../../../../arm-elf/lib/thumb/thumb2\libc.a(lib_a-malloc.o)
 .ARM.attributes
                0x00000550       0x10 c:/apps/yagarto/bin/../lib/gcc/arm-elf/4.4.2/../../../../arm-elf/lib/thumb/thumb2\libc.a(lib_a-memchr.o)
 .ARM.attributes
                0x00000560       0x10 c:/apps/yagarto/bin/../lib/gcc/arm-elf/4.4.2/../../../../arm-elf/lib/thumb/thumb2\libc.a(lib_a-memcpy.o)
 .ARM.attributes
                0x00000570       0x10 c:/apps/yagarto/bin/../lib/gcc/arm-elf/4.4.2/../../../../arm-elf/lib/thumb/thumb2\libc.a(lib_a-memmove.o)
 .ARM.attributes
                0x00000580       0x10 c:/apps/yagarto/bin/../lib/gcc/arm-elf/4.4.2/../../../../arm-elf/lib/thumb/thumb2\libc.a(lib_a-mprec.o)
 .ARM.attributes
                0x00000590       0x10 c:/apps/yagarto/bin/../lib/gcc/arm-elf/4.4.2/../../../../arm-elf/lib/thumb/thumb2\libc.a(lib_a-readr.o)
 .ARM.attributes
                0x000005a0       0x10 c:/apps/yagarto/bin/../lib/gcc/arm-elf/4.4.2/../../../../arm-elf/lib/thumb/thumb2\libc.a(lib_a-reallocr.o)
 .ARM.attributes
                0x000005b0       0x10 c:/apps/yagarto/bin/../lib/gcc/arm-elf/4.4.2/../../../../arm-elf/lib/thumb/thumb2\libc.a(lib_a-s_isinfd.o)
 .ARM.attributes
                0x000005c0       0x10 c:/apps/yagarto/bin/../lib/gcc/arm-elf/4.4.2/../../../../arm-elf/lib/thumb/thumb2\libc.a(lib_a-s_isnand.o)
 .ARM.attributes
                0x000005d0       0x10 c:/apps/yagarto/bin/../lib/gcc/arm-elf/4.4.2/../../../../arm-elf/lib/thumb/thumb2\libc.a(lib_a-strlen.o)
 .ARM.attributes
                0x000005e0       0x10 c:/apps/yagarto/bin/../lib/gcc/arm-elf/4.4.2/../../../../arm-elf/lib/thumb/thumb2\libc.a(lib_a-callocr.o)
 .ARM.attributes
                0x000005f0       0x10 c:/apps/yagarto/bin/../lib/gcc/arm-elf/4.4.2/../../../../arm-elf/lib/thumb/thumb2\libc.a(lib_a-fclose.o)
 .ARM.attributes
                0x00000600       0x10 c:/apps/yagarto/bin/../lib/gcc/arm-elf/4.4.2/thumb/thumb2\libgcc.a(_udivsi3.o)
 .ARM.attributes
                0x00000610       0x10 c:/apps/yagarto/bin/../lib/gcc/arm-elf/4.4.2/thumb/thumb2\libgcc.a(_dvmd_tls.o)
 .ARM.attributes
                0x00000620       0x10 c:/apps/yagarto/bin/../lib/gcc/arm-elf/4.4.2/thumb/thumb2\libgcc.a(_arm_addsubdf3.o)
 .ARM.attributes
                0x00000630       0x10 c:/apps/yagarto/bin/../lib/gcc/arm-elf/4.4.2/thumb/thumb2\libgcc.a(_arm_muldivdf3.o)
 .ARM.attributes
                0x00000640       0x10 c:/apps/yagarto/bin/../lib/gcc/arm-elf/4.4.2/thumb/thumb2\libgcc.a(_arm_cmpdf2.o)
 .ARM.attributes
                0x00000650       0x10 c:/apps/yagarto/bin/../lib/gcc/arm-elf/4.4.2/thumb/thumb2\libgcc.a(_arm_fixdfsi.o)

.debug_ranges   0x00000000      0x3f0
 .debug_ranges  0x00000000       0x30 ./lib/./STM32_USB-FS-Device_Driver/src/usb_core.o
 .debug_ranges  0x00000030       0x18 c:/apps/yagarto/bin/../lib/gcc/arm-elf/4.4.2/../../../../arm-elf/lib/thumb/thumb2\libc.a(lib_a-fseek.o)
 .debug_ranges  0x00000048       0x50 c:/apps/yagarto/bin/../lib/gcc/arm-elf/4.4.2/../../../../arm-elf/lib/thumb/thumb2\libc.a(lib_a-mallocr.o)
 .debug_ranges  0x00000098       0x68 c:/apps/yagarto/bin/../lib/gcc/arm-elf/4.4.2/../../../../arm-elf/lib/thumb/thumb2\libc.a(lib_a-rand.o)
 .debug_ranges  0x00000100      0x150 c:/apps/yagarto/bin/../lib/gcc/arm-elf/4.4.2/../../../../arm-elf/lib/thumb/thumb2\libc.a(lib_a-vfprintf.o)
 .debug_ranges  0x00000250       0x20 c:/apps/yagarto/bin/../lib/gcc/arm-elf/4.4.2/../../../../arm-elf/lib/thumb/thumb2\libc.a(lib_a-dtoa.o)
 .debug_ranges  0x00000270       0x18 c:/apps/yagarto/bin/../lib/gcc/arm-elf/4.4.2/../../../../arm-elf/lib/thumb/thumb2\libc.a(lib_a-fflush.o)
 .debug_ranges  0x00000288       0x18 c:/apps/yagarto/bin/../lib/gcc/arm-elf/4.4.2/../../../../arm-elf/lib/thumb/thumb2\libc.a(lib_a-fvwrite.o)
 .debug_ranges  0x000002a0       0xf0 c:/apps/yagarto/bin/../lib/gcc/arm-elf/4.4.2/../../../../arm-elf/lib/thumb/thumb2\libc.a(lib_a-mprec.o)
 .debug_ranges  0x00000390       0x48 c:/apps/yagarto/bin/../lib/gcc/arm-elf/4.4.2/../../../../arm-elf/lib/thumb/thumb2\libc.a(lib_a-reallocr.o)
 .debug_ranges  0x000003d8       0x18 c:/apps/yagarto/bin/../lib/gcc/arm-elf/4.4.2/../../../../arm-elf/lib/thumb/thumb2\libc.a(lib_a-callocr.o)

.debug_frame    0x00000000       0x28
 .debug_frame   0x00000000       0x28 c:/apps/yagarto/bin/../lib/gcc/arm-elf/4.4.2/thumb/thumb2\libgcc.a(_udivsi3.o)

Cross Reference Table

Symbol                                            File
ADC1_2_IRQHandler                                 ./src/bsp/app_int.o
                                                  ./src/bsp/app_vect.o
ADC3_IRQHandler                                   ./src/bsp/app_int.o
                                                  ./src/bsp/app_vect.o
ADC_AnalogWatchdogCmd                             ./lib/./STM32F10x_StdPeriph_Driver/src/stm32f10x_adc.o
ADC_AnalogWatchdogSingleChannelConfig             ./lib/./STM32F10x_StdPeriph_Driver/src/stm32f10x_adc.o
ADC_AnalogWatchdogThresholdsConfig                ./lib/./STM32F10x_StdPeriph_Driver/src/stm32f10x_adc.o
ADC_AutoInjectedConvCmd                           ./lib/./STM32F10x_StdPeriph_Driver/src/stm32f10x_adc.o
ADC_ClearFlag                                     ./lib/./STM32F10x_StdPeriph_Driver/src/stm32f10x_adc.o
ADC_ClearITPendingBit                             ./lib/./STM32F10x_StdPeriph_Driver/src/stm32f10x_adc.o
ADC_Cmd                                           ./lib/./STM32F10x_StdPeriph_Driver/src/stm32f10x_adc.o
                                                  ./src/bsp/bsp.o
ADC_DMACmd                                        ./lib/./STM32F10x_StdPeriph_Driver/src/stm32f10x_adc.o
ADC_DeInit                                        ./lib/./STM32F10x_StdPeriph_Driver/src/stm32f10x_adc.o
ADC_DiscModeChannelCountConfig                    ./lib/./STM32F10x_StdPeriph_Driver/src/stm32f10x_adc.o
ADC_DiscModeCmd                                   ./lib/./STM32F10x_StdPeriph_Driver/src/stm32f10x_adc.o
ADC_ExternalTrigConvCmd                           ./lib/./STM32F10x_StdPeriph_Driver/src/stm32f10x_adc.o
ADC_ExternalTrigInjectedConvCmd                   ./lib/./STM32F10x_StdPeriph_Driver/src/stm32f10x_adc.o
ADC_ExternalTrigInjectedConvConfig                ./lib/./STM32F10x_StdPeriph_Driver/src/stm32f10x_adc.o
ADC_GetCalibrationStatus                          ./lib/./STM32F10x_StdPeriph_Driver/src/stm32f10x_adc.o
                                                  ./src/bsp/bsp.o
ADC_GetConversionValue                            ./lib/./STM32F10x_StdPeriph_Driver/src/stm32f10x_adc.o
                                                  ./src/bsp/bsp.o
ADC_GetDualModeConversionValue                    ./lib/./STM32F10x_StdPeriph_Driver/src/stm32f10x_adc.o
ADC_GetFlagStatus                                 ./lib/./STM32F10x_StdPeriph_Driver/src/stm32f10x_adc.o
                                                  ./src/bsp/bsp.o
ADC_GetITStatus                                   ./lib/./STM32F10x_StdPeriph_Driver/src/stm32f10x_adc.o
ADC_GetInjectedConversionValue                    ./lib/./STM32F10x_StdPeriph_Driver/src/stm32f10x_adc.o
ADC_GetResetCalibrationStatus                     ./lib/./STM32F10x_StdPeriph_Driver/src/stm32f10x_adc.o
                                                  ./src/bsp/bsp.o
ADC_GetSoftwareStartConvStatus                    ./lib/./STM32F10x_StdPeriph_Driver/src/stm32f10x_adc.o
ADC_GetSoftwareStartInjectedConvCmdStatus         ./lib/./STM32F10x_StdPeriph_Driver/src/stm32f10x_adc.o
ADC_ITConfig                                      ./lib/./STM32F10x_StdPeriph_Driver/src/stm32f10x_adc.o
ADC_Init                                          ./lib/./STM32F10x_StdPeriph_Driver/src/stm32f10x_adc.o
                                                  ./src/bsp/bsp.o
ADC_InjectedChannelConfig                         ./lib/./STM32F10x_StdPeriph_Driver/src/stm32f10x_adc.o
ADC_InjectedDiscModeCmd                           ./lib/./STM32F10x_StdPeriph_Driver/src/stm32f10x_adc.o
ADC_InjectedSequencerLengthConfig                 ./lib/./STM32F10x_StdPeriph_Driver/src/stm32f10x_adc.o
ADC_RegularChannelConfig                          ./lib/./STM32F10x_StdPeriph_Driver/src/stm32f10x_adc.o
                                                  ./src/bsp/bsp.o
ADC_ResetCalibration                              ./lib/./STM32F10x_StdPeriph_Driver/src/stm32f10x_adc.o
                                                  ./src/bsp/bsp.o
ADC_SetInjectedOffset                             ./lib/./STM32F10x_StdPeriph_Driver/src/stm32f10x_adc.o
ADC_SoftwareStartConvCmd                          ./lib/./STM32F10x_StdPeriph_Driver/src/stm32f10x_adc.o
                                                  ./src/bsp/bsp.o
ADC_SoftwareStartInjectedConvCmd                  ./lib/./STM32F10x_StdPeriph_Driver/src/stm32f10x_adc.o
ADC_StartCalibration                              ./lib/./STM32F10x_StdPeriph_Driver/src/stm32f10x_adc.o
                                                  ./src/bsp/bsp.o
ADC_StructInit                                    ./lib/./STM32F10x_StdPeriph_Driver/src/stm32f10x_adc.o
ADC_TempSensorVrefintCmd                          ./lib/./STM32F10x_StdPeriph_Driver/src/stm32f10x_adc.o
BKP_ClearFlag                                     ./lib/./STM32F10x_StdPeriph_Driver/src/stm32f10x_bkp.o
BKP_ClearITPendingBit                             ./lib/./STM32F10x_StdPeriph_Driver/src/stm32f10x_bkp.o
BKP_DeInit                                        ./lib/./STM32F10x_StdPeriph_Driver/src/stm32f10x_bkp.o
BKP_GetFlagStatus                                 ./lib/./STM32F10x_StdPeriph_Driver/src/stm32f10x_bkp.o
BKP_GetITStatus                                   ./lib/./STM32F10x_StdPeriph_Driver/src/stm32f10x_bkp.o
BKP_ITConfig                                      ./lib/./STM32F10x_StdPeriph_Driver/src/stm32f10x_bkp.o
BKP_RTCOutputConfig                               ./lib/./STM32F10x_StdPeriph_Driver/src/stm32f10x_bkp.o
BKP_ReadBackupRegister                            ./lib/./STM32F10x_StdPeriph_Driver/src/stm32f10x_bkp.o
BKP_SetRTCCalibrationValue                        ./lib/./STM32F10x_StdPeriph_Driver/src/stm32f10x_bkp.o
BKP_TamperPinCmd                                  ./lib/./STM32F10x_StdPeriph_Driver/src/stm32f10x_bkp.o
BKP_TamperPinLevelConfig                          ./lib/./STM32F10x_StdPeriph_Driver/src/stm32f10x_bkp.o
BKP_WriteBackupRegister                           ./lib/./STM32F10x_StdPeriph_Driver/src/stm32f10x_bkp.o
BSP_ADC_POT                                       ./src/bsp/bsp.o
BSP_CPU_ClkFreq                                   ./src/bsp/bsp.o
                                                  ./lib/./uCOS-II/Ports/ARM-Cortex-M3/Generic/GCC/os_cpu_c.o
BSP_GET_ADCe1                                     ./src/bsp/bsp.o
BSP_I2C_JOY                                       ./src/bsp/bsp.o
                                                  ./src/bsp/app_int.o
BSP_I2C_LEDS                                      ./src/bsp/bsp.o
BSP_Init                                          ./src/bsp/bsp.o
                                                  ./src/application/app.o
BSP_IntDisAll                                     ./src/bsp/bsp.o
                                                  ./src/application/app.o
BSP_IntEnAll                                      ./src/bsp/bsp.o
                                                  ./src/application/app.o
BSP_LEDOff                                        ./src/bsp/bsp.o
BSP_LEDOn                                         ./src/bsp/bsp.o
BSP_LEDSet                                        ./src/bsp/bsp.o
BSP_LEDToggle                                     ./src/bsp/bsp.o
BSP_SDCARD_DISABLE                                ./src/bsp/bsp.o
BSP_SDCARD_ENABLE                                 ./src/bsp/bsp.o
BSP_SET_DAC2                                      ./src/bsp/bsp.o
BSP_SWValue                                       ./src/bsp/bsp.o
BSP_SWValues                                      ./src/bsp/bsp.o
BSP_TEST_SDIO                                     ./src/bsp/bsp.o
BSP_TEST_SRAM                                     ./src/bsp/bsp.o
Buffer_Block_Rx                                   ./src/bsp/bsp.o
Buffer_Block_Tx                                   ./src/bsp/bsp.o
Buffer_MultiBlock_Rx                              ./src/bsp/bsp.o
Buffer_MultiBlock_Tx                              ./src/bsp/bsp.o
Buffercmp                                         ./src/bsp/bsp_utils.o
                                                  ./src/bsp/bsp.o
Buffercmp16                                       ./src/bsp/bsp_utils.o
BusFaultException                                 ./src/bsp/app_int.o
                                                  ./src/bsp/app_vect.o
ByteSwap                                          ./lib/./STM32_USB-FS-Device_Driver/src/usb_regs.o
                                                  ./lib/./STM32_USB-FS-Device_Driver/src/usb_core.o
CAN_RX1_IRQHandler                                ./src/bsp/app_int.o
                                                  ./src/bsp/app_vect.o
CAN_SCE_IRQHandler                                ./src/bsp/app_int.o
                                                  ./src/bsp/app_vect.o
CPU_CntLeadZeros                                  ./lib/./uC-CPU/Cortex-M3/GCC/cpu_a.o
CPU_IntDis                                        ./lib/./uC-CPU/Cortex-M3/GCC/cpu_a.o
CPU_IntEn                                         ./lib/./uC-CPU/Cortex-M3/GCC/cpu_a.o
CPU_IntSrcDis                                     ./lib/./uC-CPU/Cortex-M3/GCC/cpu_c.o
CPU_IntSrcEn                                      ./lib/./uC-CPU/Cortex-M3/GCC/cpu_c.o
CPU_IntSrcPrioGet                                 ./lib/./uC-CPU/Cortex-M3/GCC/cpu_c.o
CPU_IntSrcPrioSet                                 ./lib/./uC-CPU/Cortex-M3/GCC/cpu_c.o
CPU_RevBits                                       ./lib/./uC-CPU/Cortex-M3/GCC/cpu_a.o
                                                  ./lib/./uC-CPU/Cortex-M3/GCC/cpu_c.o
CPU_SR_Restore                                    ./lib/./uC-CPU/Cortex-M3/GCC/cpu_a.o
                                                  ./lib/./uC-CPU/Cortex-M3/GCC/cpu_c.o
CPU_SR_Save                                       ./lib/./uC-CPU/Cortex-M3/GCC/cpu_a.o
                                                  ./lib/./uC-CPU/Cortex-M3/GCC/cpu_c.o
CTR_HP                                            ./lib/./STM32_USB-FS-Device_Driver/src/usb_int.o
CTR_LP                                            ./lib/./STM32_USB-FS-Device_Driver/src/usb_int.o
                                                  ./src/usb/usb_istr.o
ClearDTOG_RX                                      ./lib/./STM32_USB-FS-Device_Driver/src/usb_regs.o
                                                  ./lib/./STM32_USB-FS-Device_Driver/src/usb_core.o
ClearDTOG_TX                                      ./lib/./STM32_USB-FS-Device_Driver/src/usb_regs.o
                                                  ./lib/./STM32_USB-FS-Device_Driver/src/usb_core.o
ClearEPDoubleBuff                                 ./lib/./STM32_USB-FS-Device_Driver/src/usb_regs.o
ClearEP_CTR_RX                                    ./lib/./STM32_USB-FS-Device_Driver/src/usb_regs.o
ClearEP_CTR_TX                                    ./lib/./STM32_USB-FS-Device_Driver/src/usb_regs.o
ClearEP_KIND                                      ./lib/./STM32_USB-FS-Device_Driver/src/usb_regs.o
Clear_Status_Out                                  ./lib/./STM32_USB-FS-Device_Driver/src/usb_regs.o
                                                  ./src/usb/usb_prop.o
Config_Descriptor                                 ./src/usb/usb_prop.o
DAC_Cmd                                           ./lib/./STM32F10x_StdPeriph_Driver/src/stm32f10x_dac.o
DAC_DMACmd                                        ./lib/./STM32F10x_StdPeriph_Driver/src/stm32f10x_dac.o
DAC_DeInit                                        ./lib/./STM32F10x_StdPeriph_Driver/src/stm32f10x_dac.o
DAC_DualSoftwareTriggerCmd                        ./lib/./STM32F10x_StdPeriph_Driver/src/stm32f10x_dac.o
DAC_GetDataOutputValue                            ./lib/./STM32F10x_StdPeriph_Driver/src/stm32f10x_dac.o
DAC_Init                                          ./lib/./STM32F10x_StdPeriph_Driver/src/stm32f10x_dac.o
DAC_SetChannel1Data                               ./lib/./STM32F10x_StdPeriph_Driver/src/stm32f10x_dac.o
DAC_SetChannel2Data                               ./lib/./STM32F10x_StdPeriph_Driver/src/stm32f10x_dac.o
                                                  ./src/bsp/bsp.o
DAC_SetDualChannelData                            ./lib/./STM32F10x_StdPeriph_Driver/src/stm32f10x_dac.o
DAC_SoftwareTriggerCmd                            ./lib/./STM32F10x_StdPeriph_Driver/src/stm32f10x_dac.o
DAC_StructInit                                    ./lib/./STM32F10x_StdPeriph_Driver/src/stm32f10x_dac.o
DAC_WaveGenerationCmd                             ./lib/./STM32F10x_StdPeriph_Driver/src/stm32f10x_dac.o
DBGMCU_Config                                     ./lib/./STM32F10x_StdPeriph_Driver/src/stm32f10x_dbgmcu.o
DBGMCU_GetDEVID                                   ./lib/./STM32F10x_StdPeriph_Driver/src/stm32f10x_dbgmcu.o
DBGMCU_GetREVID                                   ./lib/./STM32F10x_StdPeriph_Driver/src/stm32f10x_dbgmcu.o
DMA2Channel1_IRQHandler                           ./src/bsp/app_int.o
                                                  ./src/bsp/app_vect.o
DMA2Channel2_IRQHandler                           ./src/bsp/app_int.o
                                                  ./src/bsp/app_vect.o
DMA2Channel3_IRQHandler                           ./src/bsp/app_int.o
                                                  ./src/bsp/app_vect.o
DMA2Channel4_5_IRQHandler                         ./src/bsp/app_int.o
                                                  ./src/bsp/app_vect.o
DMAChannel1_IRQHandler                            ./src/bsp/app_int.o
                                                  ./src/bsp/app_vect.o
DMAChannel2_IRQHandler                            ./src/bsp/app_int.o
                                                  ./src/bsp/app_vect.o
DMAChannel3_IRQHandler                            ./src/bsp/app_int.o
                                                  ./src/bsp/app_vect.o
DMAChannel4_IRQHandler                            ./src/bsp/app_int.o
                                                  ./src/bsp/app_vect.o
DMAChannel5_IRQHandler                            ./src/bsp/app_int.o
                                                  ./src/bsp/app_vect.o
DMAChannel6_IRQHandler                            ./src/bsp/app_int.o
                                                  ./src/bsp/app_vect.o
DMAChannel7_IRQHandler                            ./src/bsp/app_int.o
                                                  ./src/bsp/app_vect.o
DMA_ClearFlag                                     ./lib/./STM32F10x_StdPeriph_Driver/src/stm32f10x_dma.o
                                                  ./src/bsp/sdcard.o
DMA_ClearITPendingBit                             ./lib/./STM32F10x_StdPeriph_Driver/src/stm32f10x_dma.o
DMA_Cmd                                           ./lib/./STM32F10x_StdPeriph_Driver/src/stm32f10x_dma.o
                                                  ./src/bsp/sdcard.o
DMA_DeInit                                        ./lib/./STM32F10x_StdPeriph_Driver/src/stm32f10x_dma.o
DMA_GetCurrDataCounter                            ./lib/./STM32F10x_StdPeriph_Driver/src/stm32f10x_dma.o
DMA_GetFlagStatus                                 ./lib/./STM32F10x_StdPeriph_Driver/src/stm32f10x_dma.o
                                                  ./src/bsp/sdcard.o
DMA_GetITStatus                                   ./lib/./STM32F10x_StdPeriph_Driver/src/stm32f10x_dma.o
DMA_ITConfig                                      ./lib/./STM32F10x_StdPeriph_Driver/src/stm32f10x_dma.o
DMA_Init                                          ./lib/./STM32F10x_StdPeriph_Driver/src/stm32f10x_dma.o
                                                  ./src/bsp/sdcard.o
DMA_StructInit                                    ./lib/./STM32F10x_StdPeriph_Driver/src/stm32f10x_dma.o
D_LED_CLK                                         ./src/bsp/bsp.o
D_LED_PIN                                         ./src/bsp/bsp.o
D_LED_PORT                                        ./src/bsp/bsp.o
Data_Mul_MaxPacketSize                            ./lib/./STM32_USB-FS-Device_Driver/src/usb_core.o
DebugMonitor                                      ./src/bsp/app_int.o
                                                  ./src/bsp/app_vect.o
DestBuffer                                        ./src/bsp/sdcard.o
Device_Descriptor                                 ./src/usb/usb_prop.o
Device_Info                                       ./src/usb/hw_config.o
                                                  ./src/usb/usb_prop.o
                                                  ./lib/./STM32_USB-FS-Device_Driver/src/usb_init.o
Device_Property                                   ./src/usb/usb_prop.o
                                                  ./src/usb/usb_istr.o
                                                  ./lib/./STM32_USB-FS-Device_Driver/src/usb_init.o
                                                  ./lib/./STM32_USB-FS-Device_Driver/src/usb_core.o
Device_Table                                      ./src/usb/usb_prop.o
                                                  ./lib/./STM32_USB-FS-Device_Driver/src/usb_core.o
EP1_IN_Callback                                   ./src/usb/usb_endp.o
                                                  ./src/usb/usb_istr.o
EP1_OUT_Callback                                  ./src/usb/usb_endp.o
                                                  ./src/usb/usb_istr.o
EP2_IN_Callback                                   ./src/usb/usb_endp.o
                                                  ./src/usb/usb_istr.o
EP2_OUT_Callback                                  ./src/usb/usb_endp.o
                                                  ./src/usb/usb_istr.o
EP3_IN_Callback                                   ./src/usb/usb_endp.o
                                                  ./src/usb/usb_istr.o
EP3_OUT_Callback                                  ./src/usb/usb_endp.o
                                                  ./src/usb/usb_istr.o
EP4_IN_Callback                                   ./src/usb/usb_endp.o
                                                  ./src/usb/usb_istr.o
EP4_OUT_Callback                                  ./src/usb/usb_endp.o
                                                  ./src/usb/usb_istr.o
EP5_IN_Callback                                   ./src/usb/usb_endp.o
                                                  ./src/usb/usb_istr.o
EP5_OUT_Callback                                  ./src/usb/usb_endp.o
                                                  ./src/usb/usb_istr.o
EP6_IN_Callback                                   ./src/usb/usb_endp.o
                                                  ./src/usb/usb_istr.o
EP6_OUT_Callback                                  ./src/usb/usb_endp.o
                                                  ./src/usb/usb_istr.o
EP7_IN_Callback                                   ./src/usb/usb_endp.o
                                                  ./src/usb/usb_istr.o
EP7_OUT_Callback                                  ./src/usb/usb_endp.o
                                                  ./src/usb/usb_istr.o
EPindex                                           ./lib/./STM32_USB-FS-Device_Driver/src/usb_int.o
                                                  ./lib/./STM32_USB-FS-Device_Driver/src/usb_init.o
EXTI0_IRQHandler                                  ./src/bsp/app_int.o
                                                  ./src/bsp/app_vect.o
EXTI15_10_IRQHandler                              ./src/bsp/app_int.o
                                                  ./src/bsp/app_vect.o
EXTI1_IRQHandler                                  ./src/bsp/app_int.o
                                                  ./src/bsp/app_vect.o
EXTI2_IRQHandler                                  ./src/bsp/app_int.o
                                                  ./src/bsp/app_vect.o
EXTI3_IRQHandler                                  ./src/bsp/app_int.o
                                                  ./src/bsp/app_vect.o
EXTI4_IRQHandler                                  ./src/bsp/app_int.o
                                                  ./src/bsp/app_vect.o
EXTI9_5_IRQHandler                                ./src/bsp/app_int.o
                                                  ./src/bsp/app_vect.o
EXTI_ClearFlag                                    ./lib/./STM32F10x_StdPeriph_Driver/src/stm32f10x_exti.o
EXTI_ClearITPendingBit                            ./lib/./STM32F10x_StdPeriph_Driver/src/stm32f10x_exti.o
                                                  ./src/bsp/app_int.o
EXTI_DeInit                                       ./lib/./STM32F10x_StdPeriph_Driver/src/stm32f10x_exti.o
EXTI_GenerateSWInterrupt                          ./lib/./STM32F10x_StdPeriph_Driver/src/stm32f10x_exti.o
EXTI_GetFlagStatus                                ./lib/./STM32F10x_StdPeriph_Driver/src/stm32f10x_exti.o
EXTI_GetITStatus                                  ./lib/./STM32F10x_StdPeriph_Driver/src/stm32f10x_exti.o
EXTI_Init                                         ./lib/./STM32F10x_StdPeriph_Driver/src/stm32f10x_exti.o
                                                  ./src/bsp/bsp.o
EXTI_StructInit                                   ./lib/./STM32F10x_StdPeriph_Driver/src/stm32f10x_exti.o
Enter_LowPowerMode                                ./src/usb/hw_config.o
                                                  ./src/usb/usb_pwr.o
FLASH_ClearFlag                                   ./lib/./STM32F10x_StdPeriph_Driver/src/stm32f10x_flash.o
FLASH_EnableWriteProtection                       ./lib/./STM32F10x_StdPeriph_Driver/src/stm32f10x_flash.o
FLASH_EraseAllPages                               ./lib/./STM32F10x_StdPeriph_Driver/src/stm32f10x_flash.o
FLASH_EraseOptionBytes                            ./lib/./STM32F10x_StdPeriph_Driver/src/stm32f10x_flash.o
FLASH_ErasePage                                   ./lib/./STM32F10x_StdPeriph_Driver/src/stm32f10x_flash.o
FLASH_GetFlagStatus                               ./lib/./STM32F10x_StdPeriph_Driver/src/stm32f10x_flash.o
FLASH_GetPrefetchBufferStatus                     ./lib/./STM32F10x_StdPeriph_Driver/src/stm32f10x_flash.o
FLASH_GetReadOutProtectionStatus                  ./lib/./STM32F10x_StdPeriph_Driver/src/stm32f10x_flash.o
FLASH_GetStatus                                   ./lib/./STM32F10x_StdPeriph_Driver/src/stm32f10x_flash.o
FLASH_GetUserOptionByte                           ./lib/./STM32F10x_StdPeriph_Driver/src/stm32f10x_flash.o
FLASH_GetWriteProtectionOptionByte                ./lib/./STM32F10x_StdPeriph_Driver/src/stm32f10x_flash.o
FLASH_HalfCycleAccessCmd                          ./lib/./STM32F10x_StdPeriph_Driver/src/stm32f10x_flash.o
FLASH_IRQHandler                                  ./src/bsp/app_int.o
                                                  ./src/bsp/app_vect.o
FLASH_ITConfig                                    ./lib/./STM32F10x_StdPeriph_Driver/src/stm32f10x_flash.o
FLASH_Lock                                        ./lib/./STM32F10x_StdPeriph_Driver/src/stm32f10x_flash.o
FLASH_PrefetchBufferCmd                           ./lib/./STM32F10x_StdPeriph_Driver/src/stm32f10x_flash.o
                                                  ./src/usb/hw_config.o
                                                  ./src/bsp/bsp.o
FLASH_ProgramHalfWord                             ./lib/./STM32F10x_StdPeriph_Driver/src/stm32f10x_flash.o
FLASH_ProgramOptionByteData                       ./lib/./STM32F10x_StdPeriph_Driver/src/stm32f10x_flash.o
FLASH_ProgramWord                                 ./lib/./STM32F10x_StdPeriph_Driver/src/stm32f10x_flash.o
FLASH_ReadOutProtection                           ./lib/./STM32F10x_StdPeriph_Driver/src/stm32f10x_flash.o
FLASH_SetLatency                                  ./lib/./STM32F10x_StdPeriph_Driver/src/stm32f10x_flash.o
                                                  ./src/usb/hw_config.o
                                                  ./src/bsp/bsp.o
FLASH_Unlock                                      ./lib/./STM32F10x_StdPeriph_Driver/src/stm32f10x_flash.o
FLASH_UserOptionByteConfig                        ./lib/./STM32F10x_StdPeriph_Driver/src/stm32f10x_flash.o
FLASH_WaitForLastOperation                        ./lib/./STM32F10x_StdPeriph_Driver/src/stm32f10x_flash.o
FSMC_ClearFlag                                    ./lib/./STM32F10x_StdPeriph_Driver/src/stm32f10x_fsmc.o
FSMC_ClearITPendingBit                            ./lib/./STM32F10x_StdPeriph_Driver/src/stm32f10x_fsmc.o
FSMC_GetECC                                       ./lib/./STM32F10x_StdPeriph_Driver/src/stm32f10x_fsmc.o
FSMC_GetFlagStatus                                ./lib/./STM32F10x_StdPeriph_Driver/src/stm32f10x_fsmc.o
FSMC_GetITStatus                                  ./lib/./STM32F10x_StdPeriph_Driver/src/stm32f10x_fsmc.o
FSMC_IRQHandler                                   ./src/bsp/app_int.o
                                                  ./src/bsp/app_vect.o
FSMC_ITConfig                                     ./lib/./STM32F10x_StdPeriph_Driver/src/stm32f10x_fsmc.o
FSMC_NANDCmd                                      ./lib/./STM32F10x_StdPeriph_Driver/src/stm32f10x_fsmc.o
FSMC_NANDDeInit                                   ./lib/./STM32F10x_StdPeriph_Driver/src/stm32f10x_fsmc.o
FSMC_NANDECCCmd                                   ./lib/./STM32F10x_StdPeriph_Driver/src/stm32f10x_fsmc.o
FSMC_NANDInit                                     ./lib/./STM32F10x_StdPeriph_Driver/src/stm32f10x_fsmc.o
FSMC_NANDStructInit                               ./lib/./STM32F10x_StdPeriph_Driver/src/stm32f10x_fsmc.o
FSMC_NORSRAMCmd                                   ./lib/./STM32F10x_StdPeriph_Driver/src/stm32f10x_fsmc.o
                                                  ./src/sram/fsmc_sram.o
FSMC_NORSRAMDeInit                                ./lib/./STM32F10x_StdPeriph_Driver/src/stm32f10x_fsmc.o
FSMC_NORSRAMInit                                  ./lib/./STM32F10x_StdPeriph_Driver/src/stm32f10x_fsmc.o
                                                  ./src/sram/fsmc_sram.o
FSMC_NORSRAMStructInit                            ./lib/./STM32F10x_StdPeriph_Driver/src/stm32f10x_fsmc.o
FSMC_PCCARDCmd                                    ./lib/./STM32F10x_StdPeriph_Driver/src/stm32f10x_fsmc.o
FSMC_PCCARDDeInit                                 ./lib/./STM32F10x_StdPeriph_Driver/src/stm32f10x_fsmc.o
FSMC_PCCARDInit                                   ./lib/./STM32F10x_StdPeriph_Driver/src/stm32f10x_fsmc.o
FSMC_PCCARDStructInit                             ./lib/./STM32F10x_StdPeriph_Driver/src/stm32f10x_fsmc.o
FSMC_SRAM_Init                                    ./src/sram/fsmc_sram.o
FSMC_SRAM_ReadBuffer                              ./src/sram/fsmc_sram.o
FSMC_SRAM_WriteBuffer                             ./src/sram/fsmc_sram.o
FSMC_SRAM_test                                    ./src/sram/fsmc_sram.o
                                                  ./src/bsp/bsp.o
Fill_Buffer                                       ./src/bsp/bsp_utils.o
                                                  ./src/bsp/bsp.o
Fill_Buffer16                                     ./src/bsp/bsp_utils.o
FreeUserBuffer                                    ./lib/./STM32_USB-FS-Device_Driver/src/usb_regs.o
GPIO_AFIODeInit                                   ./lib/./STM32F10x_StdPeriph_Driver/src/stm32f10x_gpio.o
GPIO_DeInit                                       ./lib/./STM32F10x_StdPeriph_Driver/src/stm32f10x_gpio.o
GPIO_ETH_MediaInterfaceConfig                     ./lib/./STM32F10x_StdPeriph_Driver/src/stm32f10x_gpio.o
GPIO_EXTILineConfig                               ./lib/./STM32F10x_StdPeriph_Driver/src/stm32f10x_gpio.o
                                                  ./src/bsp/bsp.o
GPIO_EventOutputCmd                               ./lib/./STM32F10x_StdPeriph_Driver/src/stm32f10x_gpio.o
GPIO_EventOutputConfig                            ./lib/./STM32F10x_StdPeriph_Driver/src/stm32f10x_gpio.o
GPIO_Init                                         ./lib/./STM32F10x_StdPeriph_Driver/src/stm32f10x_gpio.o
                                                  ./src/sram/fsmc_sram.o
                                                  ./src/bsp/sdcard.o
                                                  ./src/bsp/bsp.o
GPIO_PinLockConfig                                ./lib/./STM32F10x_StdPeriph_Driver/src/stm32f10x_gpio.o
GPIO_PinRemapConfig                               ./lib/./STM32F10x_StdPeriph_Driver/src/stm32f10x_gpio.o
GPIO_ReadInputData                                ./lib/./STM32F10x_StdPeriph_Driver/src/stm32f10x_gpio.o
GPIO_ReadInputDataBit                             ./lib/./STM32F10x_StdPeriph_Driver/src/stm32f10x_gpio.o
GPIO_ReadOutputData                               ./lib/./STM32F10x_StdPeriph_Driver/src/stm32f10x_gpio.o
GPIO_ReadOutputDataBit                            ./lib/./STM32F10x_StdPeriph_Driver/src/stm32f10x_gpio.o
GPIO_ResetBits                                    ./lib/./STM32F10x_StdPeriph_Driver/src/stm32f10x_gpio.o
GPIO_SetBits                                      ./lib/./STM32F10x_StdPeriph_Driver/src/stm32f10x_gpio.o
GPIO_StructInit                                   ./lib/./STM32F10x_StdPeriph_Driver/src/stm32f10x_gpio.o
GPIO_Write                                        ./lib/./STM32F10x_StdPeriph_Driver/src/stm32f10x_gpio.o
GPIO_WriteBit                                     ./lib/./STM32F10x_StdPeriph_Driver/src/stm32f10x_gpio.o
GetBTABLE                                         ./lib/./STM32_USB-FS-Device_Driver/src/usb_regs.o
GetCNTR                                           ./lib/./STM32_USB-FS-Device_Driver/src/usb_regs.o
GetDADDR                                          ./lib/./STM32_USB-FS-Device_Driver/src/usb_regs.o
GetENDPOINT                                       ./lib/./STM32_USB-FS-Device_Driver/src/usb_regs.o
GetEPAddress                                      ./lib/./STM32_USB-FS-Device_Driver/src/usb_regs.o
GetEPDblBuf0Addr                                  ./lib/./STM32_USB-FS-Device_Driver/src/usb_regs.o
GetEPDblBuf0Count                                 ./lib/./STM32_USB-FS-Device_Driver/src/usb_regs.o
GetEPDblBuf1Addr                                  ./lib/./STM32_USB-FS-Device_Driver/src/usb_regs.o
GetEPDblBuf1Count                                 ./lib/./STM32_USB-FS-Device_Driver/src/usb_regs.o
GetEPDblBufDir                                    ./lib/./STM32_USB-FS-Device_Driver/src/usb_regs.o
GetEPRxAddr                                       ./lib/./STM32_USB-FS-Device_Driver/src/usb_regs.o
                                                  ./lib/./STM32_USB-FS-Device_Driver/src/usb_sil.o
                                                  ./lib/./STM32_USB-FS-Device_Driver/src/usb_core.o
GetEPRxCount                                      ./lib/./STM32_USB-FS-Device_Driver/src/usb_regs.o
                                                  ./lib/./STM32_USB-FS-Device_Driver/src/usb_sil.o
GetEPRxStatus                                     ./lib/./STM32_USB-FS-Device_Driver/src/usb_regs.o
GetEPTxAddr                                       ./lib/./STM32_USB-FS-Device_Driver/src/usb_regs.o
                                                  ./lib/./STM32_USB-FS-Device_Driver/src/usb_sil.o
                                                  ./lib/./STM32_USB-FS-Device_Driver/src/usb_core.o
GetEPTxCount                                      ./lib/./STM32_USB-FS-Device_Driver/src/usb_regs.o
GetEPTxStatus                                     ./lib/./STM32_USB-FS-Device_Driver/src/usb_regs.o
GetEPType                                         ./lib/./STM32_USB-FS-Device_Driver/src/usb_regs.o
GetFNR                                            ./lib/./STM32_USB-FS-Device_Driver/src/usb_regs.o
GetISTR                                           ./lib/./STM32_USB-FS-Device_Driver/src/usb_regs.o
GetRxStallStatus                                  ./lib/./STM32_USB-FS-Device_Driver/src/usb_regs.o
GetTxStallStatus                                  ./lib/./STM32_USB-FS-Device_Driver/src/usb_regs.o
Get_SerialNum                                     ./src/usb/hw_config.o
                                                  ./src/usb/usb_prop.o
HSEStartUpStatus                                  ./src/usb/hw_config.o
HardFaultException                                ./src/bsp/app_int.o
                                                  ./src/bsp/app_vect.o
I2C1_ER_IRQHandler                                ./src/bsp/app_int.o
                                                  ./src/bsp/app_vect.o
I2C1_EV_IRQHandler                                ./src/bsp/app_int.o
                                                  ./src/bsp/app_vect.o
I2C2_ER_IRQHandler                                ./src/bsp/app_int.o
                                                  ./src/bsp/app_vect.o
I2C2_EV_IRQHandler                                ./src/bsp/app_int.o
                                                  ./src/bsp/app_vect.o
I2C_ARPCmd                                        ./lib/./STM32F10x_StdPeriph_Driver/src/stm32f10x_i2c.o
I2C_AcknowledgeConfig                             ./lib/./STM32F10x_StdPeriph_Driver/src/stm32f10x_i2c.o
                                                  ./src/bsp/bsp.o
I2C_CalculatePEC                                  ./lib/./STM32F10x_StdPeriph_Driver/src/stm32f10x_i2c.o
I2C_CheckEvent                                    ./lib/./STM32F10x_StdPeriph_Driver/src/stm32f10x_i2c.o
                                                  ./src/bsp/bsp.o
I2C_ClearFlag                                     ./lib/./STM32F10x_StdPeriph_Driver/src/stm32f10x_i2c.o
I2C_ClearITPendingBit                             ./lib/./STM32F10x_StdPeriph_Driver/src/stm32f10x_i2c.o
I2C_Cmd                                           ./lib/./STM32F10x_StdPeriph_Driver/src/stm32f10x_i2c.o
                                                  ./src/bsp/bsp.o
I2C_DMACmd                                        ./lib/./STM32F10x_StdPeriph_Driver/src/stm32f10x_i2c.o
I2C_DMALastTransferCmd                            ./lib/./STM32F10x_StdPeriph_Driver/src/stm32f10x_i2c.o
I2C_DeInit                                        ./lib/./STM32F10x_StdPeriph_Driver/src/stm32f10x_i2c.o
I2C_DualAddressCmd                                ./lib/./STM32F10x_StdPeriph_Driver/src/stm32f10x_i2c.o
I2C_FastModeDutyCycleConfig                       ./lib/./STM32F10x_StdPeriph_Driver/src/stm32f10x_i2c.o
I2C_GeneralCallCmd                                ./lib/./STM32F10x_StdPeriph_Driver/src/stm32f10x_i2c.o
I2C_GenerateSTART                                 ./lib/./STM32F10x_StdPeriph_Driver/src/stm32f10x_i2c.o
                                                  ./src/bsp/bsp.o
I2C_GenerateSTOP                                  ./lib/./STM32F10x_StdPeriph_Driver/src/stm32f10x_i2c.o
                                                  ./src/bsp/bsp.o
I2C_GetFlagStatus                                 ./lib/./STM32F10x_StdPeriph_Driver/src/stm32f10x_i2c.o
I2C_GetITStatus                                   ./lib/./STM32F10x_StdPeriph_Driver/src/stm32f10x_i2c.o
I2C_GetLastEvent                                  ./lib/./STM32F10x_StdPeriph_Driver/src/stm32f10x_i2c.o
I2C_GetPEC                                        ./lib/./STM32F10x_StdPeriph_Driver/src/stm32f10x_i2c.o
I2C_ITConfig                                      ./lib/./STM32F10x_StdPeriph_Driver/src/stm32f10x_i2c.o
I2C_Init                                          ./lib/./STM32F10x_StdPeriph_Driver/src/stm32f10x_i2c.o
                                                  ./src/bsp/bsp.o
I2C_OwnAddress2Config                             ./lib/./STM32F10x_StdPeriph_Driver/src/stm32f10x_i2c.o
I2C_PECPositionConfig                             ./lib/./STM32F10x_StdPeriph_Driver/src/stm32f10x_i2c.o
I2C_ReadRegister                                  ./lib/./STM32F10x_StdPeriph_Driver/src/stm32f10x_i2c.o
I2C_ReceiveData                                   ./lib/./STM32F10x_StdPeriph_Driver/src/stm32f10x_i2c.o
                                                  ./src/bsp/bsp.o
I2C_SMBusAlertConfig                              ./lib/./STM32F10x_StdPeriph_Driver/src/stm32f10x_i2c.o
I2C_Send7bitAddress                               ./lib/./STM32F10x_StdPeriph_Driver/src/stm32f10x_i2c.o
                                                  ./src/bsp/bsp.o
I2C_SendData                                      ./lib/./STM32F10x_StdPeriph_Driver/src/stm32f10x_i2c.o
                                                  ./src/bsp/bsp.o
I2C_SoftwareResetCmd                              ./lib/./STM32F10x_StdPeriph_Driver/src/stm32f10x_i2c.o
                                                  ./src/bsp/bsp.o
I2C_StretchClockCmd                               ./lib/./STM32F10x_StdPeriph_Driver/src/stm32f10x_i2c.o
I2C_StructInit                                    ./lib/./STM32F10x_StdPeriph_Driver/src/stm32f10x_i2c.o
I2C_TransmitPEC                                   ./lib/./STM32F10x_StdPeriph_Driver/src/stm32f10x_i2c.o
In0_Process                                       ./lib/./STM32_USB-FS-Device_Driver/src/usb_core.o
                                                  ./lib/./STM32_USB-FS-Device_Driver/src/usb_int.o
JOY_STATE                                         ./src/bsp/bsp_globals.o
                                                  ./src/bsp/app_int.o
Leave_LowPowerMode                                ./src/usb/hw_config.o
                                                  ./src/usb/usb_pwr.o
MemManageException                                ./src/bsp/app_int.o
                                                  ./src/bsp/app_vect.o
NMIException                                      ./src/bsp/app_int.o
                                                  ./src/bsp/app_vect.o
NOP_Process                                       ./lib/./STM32_USB-FS-Device_Driver/src/usb_core.o
                                                  ./src/usb/usb_prop.o
NVIC_Init                                         ./lib/./STM32F10x_StdPeriph_Driver/src/misc.o
                                                  ./src/usb/hw_config.o
                                                  ./src/bsp/bsp.o
NVIC_PriorityGroupConfig                          ./lib/./STM32F10x_StdPeriph_Driver/src/misc.o
                                                  ./src/usb/hw_config.o
                                                  ./src/bsp/bsp.o
NVIC_SetVectorTable                               ./lib/./STM32F10x_StdPeriph_Driver/src/misc.o
NVIC_SystemLPConfig                               ./lib/./STM32F10x_StdPeriph_Driver/src/misc.o
NumberOfBytes                                     ./src/bsp/sdcard.o
OSCPUUsage                                        ./lib/./uCOS-II/Source/os_core.o
OSCtxSw                                           ./lib/./uCOS-II/Ports/ARM-Cortex-M3/Generic/GCC/os_cpu_a.o
                                                  ./lib/./uCOS-II/Source/os_core.o
OSCtxSwCtr                                        ./lib/./uCOS-II/Source/os_core.o
OSDataSize                                        ./lib/./uCOS-II/Ports/ARM-Cortex-M3/Generic/GCC/os_dbg.o
OSDebugEn                                         ./lib/./uCOS-II/Ports/ARM-Cortex-M3/Generic/GCC/os_dbg.o
OSDebugInit                                       ./lib/./uCOS-II/Ports/ARM-Cortex-M3/Generic/GCC/os_dbg.o
                                                  ./lib/./uCOS-II/Source/os_core.o
OSEndiannessTest                                  ./lib/./uCOS-II/Ports/ARM-Cortex-M3/Generic/GCC/os_dbg.o
OSEventEn                                         ./lib/./uCOS-II/Ports/ARM-Cortex-M3/Generic/GCC/os_dbg.o
OSEventFreeList                                   ./lib/./uCOS-II/Source/os_sem.o
                                                  ./lib/./uCOS-II/Source/os_q.o
                                                  ./lib/./uCOS-II/Source/os_mutex.o
                                                  ./lib/./uCOS-II/Source/os_mbox.o
                                                  ./lib/./uCOS-II/Source/os_core.o
OSEventMax                                        ./lib/./uCOS-II/Ports/ARM-Cortex-M3/Generic/GCC/os_dbg.o
OSEventNameGet                                    ./lib/./uCOS-II/Source/os_core.o
OSEventNameSet                                    ./lib/./uCOS-II/Source/os_core.o
                                                  ./lib/./uCOS-II/Source/os_tmr.o
OSEventNameSize                                   ./lib/./uCOS-II/Ports/ARM-Cortex-M3/Generic/GCC/os_dbg.o
OSEventPendMulti                                  ./lib/./uCOS-II/Source/os_core.o
OSEventSize                                       ./lib/./uCOS-II/Ports/ARM-Cortex-M3/Generic/GCC/os_dbg.o
OSEventTbl                                        ./lib/./uCOS-II/Source/os_core.o
OSEventTblSize                                    ./lib/./uCOS-II/Ports/ARM-Cortex-M3/Generic/GCC/os_dbg.o
OSFlagAccept                                      ./lib/./uCOS-II/Source/os_flag.o
OSFlagCreate                                      ./lib/./uCOS-II/Source/os_flag.o
OSFlagDel                                         ./lib/./uCOS-II/Source/os_flag.o
OSFlagEn                                          ./lib/./uCOS-II/Ports/ARM-Cortex-M3/Generic/GCC/os_dbg.o
OSFlagFreeList                                    ./lib/./uCOS-II/Source/os_flag.o
                                                  ./lib/./uCOS-II/Source/os_core.o
OSFlagGrpSize                                     ./lib/./uCOS-II/Ports/ARM-Cortex-M3/Generic/GCC/os_dbg.o
OSFlagMax                                         ./lib/./uCOS-II/Ports/ARM-Cortex-M3/Generic/GCC/os_dbg.o
OSFlagNameGet                                     ./lib/./uCOS-II/Source/os_flag.o
OSFlagNameSet                                     ./lib/./uCOS-II/Source/os_flag.o
OSFlagNameSize                                    ./lib/./uCOS-II/Ports/ARM-Cortex-M3/Generic/GCC/os_dbg.o
OSFlagNodeSize                                    ./lib/./uCOS-II/Ports/ARM-Cortex-M3/Generic/GCC/os_dbg.o
OSFlagPend                                        ./lib/./uCOS-II/Source/os_flag.o
OSFlagPendGetFlagsRdy                             ./lib/./uCOS-II/Source/os_flag.o
OSFlagPost                                        ./lib/./uCOS-II/Source/os_flag.o
OSFlagQuery                                       ./lib/./uCOS-II/Source/os_flag.o
OSFlagTbl                                         ./lib/./uCOS-II/Source/os_flag.o
                                                  ./lib/./uCOS-II/Source/os_core.o
OSFlagWidth                                       ./lib/./uCOS-II/Ports/ARM-Cortex-M3/Generic/GCC/os_dbg.o
OSIdleCtr                                         ./lib/./uCOS-II/Source/os_core.o
OSIdleCtrMax                                      ./lib/./uCOS-II/Source/os_core.o
OSIdleCtrRun                                      ./lib/./uCOS-II/Source/os_core.o
OSInit                                            ./lib/./uCOS-II/Source/os_core.o
                                                  ./src/application/app.o
OSInitHookBegin                                   ./lib/./uCOS-II/Ports/ARM-Cortex-M3/Generic/GCC/os_cpu_c.o
                                                  ./lib/./uCOS-II/Source/os_core.o
OSInitHookEnd                                     ./lib/./uCOS-II/Ports/ARM-Cortex-M3/Generic/GCC/os_cpu_c.o
                                                  ./lib/./uCOS-II/Source/os_core.o
OSIntCtxSw                                        ./lib/./uCOS-II/Ports/ARM-Cortex-M3/Generic/GCC/os_cpu_a.o
                                                  ./lib/./uCOS-II/Source/os_core.o
OSIntEnter                                        ./lib/./uCOS-II/Source/os_core.o
OSIntExit                                         ./lib/./uCOS-II/Source/os_core.o
                                                  ./src/bsp/bsp.o
                                                  ./lib/./uCOS-II/Ports/ARM-Cortex-M3/Generic/GCC/os_cpu_c.o
OSIntNesting                                      ./src/bsp/bsp.o
                                                  ./lib/./uCOS-II/Source/os_tmr.o
                                                  ./lib/./uCOS-II/Source/os_time.o
                                                  ./lib/./uCOS-II/Source/os_task.o
                                                  ./lib/./uCOS-II/Source/os_sem.o
                                                  ./lib/./uCOS-II/Source/os_q.o
                                                  ./lib/./uCOS-II/Source/os_mutex.o
                                                  ./lib/./uCOS-II/Source/os_mem.o
                                                  ./lib/./uCOS-II/Source/os_mbox.o
                                                  ./lib/./uCOS-II/Source/os_flag.o
                                                  ./lib/./uCOS-II/Source/os_core.o
                                                  ./lib/./uCOS-II/Ports/ARM-Cortex-M3/Generic/GCC/os_cpu_c.o
OSLockNesting                                     ./lib/./uCOS-II/Source/os_task.o
                                                  ./lib/./uCOS-II/Source/os_sem.o
                                                  ./lib/./uCOS-II/Source/os_q.o
                                                  ./lib/./uCOS-II/Source/os_mutex.o
                                                  ./lib/./uCOS-II/Source/os_mbox.o
                                                  ./lib/./uCOS-II/Source/os_flag.o
                                                  ./lib/./uCOS-II/Source/os_core.o
OSLowestPrio                                      ./lib/./uCOS-II/Ports/ARM-Cortex-M3/Generic/GCC/os_dbg.o
OSMboxAccept                                      ./lib/./uCOS-II/Source/os_mbox.o
OSMboxCreate                                      ./lib/./uCOS-II/Source/os_mbox.o
OSMboxDel                                         ./lib/./uCOS-II/Source/os_mbox.o
OSMboxEn                                          ./lib/./uCOS-II/Ports/ARM-Cortex-M3/Generic/GCC/os_dbg.o
OSMboxPend                                        ./lib/./uCOS-II/Source/os_mbox.o
OSMboxPendAbort                                   ./lib/./uCOS-II/Source/os_mbox.o
OSMboxPost                                        ./lib/./uCOS-II/Source/os_mbox.o
OSMboxPostOpt                                     ./lib/./uCOS-II/Source/os_mbox.o
OSMboxQuery                                       ./lib/./uCOS-II/Source/os_mbox.o
OSMemCreate                                       ./lib/./uCOS-II/Source/os_mem.o
OSMemEn                                           ./lib/./uCOS-II/Ports/ARM-Cortex-M3/Generic/GCC/os_dbg.o
OSMemFreeList                                     ./lib/./uCOS-II/Source/os_mem.o
                                                  ./lib/./uCOS-II/Source/os_core.o
OSMemGet                                          ./lib/./uCOS-II/Source/os_mem.o
OSMemMax                                          ./lib/./uCOS-II/Ports/ARM-Cortex-M3/Generic/GCC/os_dbg.o
OSMemNameGet                                      ./lib/./uCOS-II/Source/os_mem.o
OSMemNameSet                                      ./lib/./uCOS-II/Source/os_mem.o
OSMemNameSize                                     ./lib/./uCOS-II/Ports/ARM-Cortex-M3/Generic/GCC/os_dbg.o
OSMemPut                                          ./lib/./uCOS-II/Source/os_mem.o
OSMemQuery                                        ./lib/./uCOS-II/Source/os_mem.o
OSMemSize                                         ./lib/./uCOS-II/Ports/ARM-Cortex-M3/Generic/GCC/os_dbg.o
OSMemTbl                                          ./lib/./uCOS-II/Source/os_mem.o
                                                  ./lib/./uCOS-II/Source/os_core.o
OSMemTblSize                                      ./lib/./uCOS-II/Ports/ARM-Cortex-M3/Generic/GCC/os_dbg.o
OSMutexAccept                                     ./lib/./uCOS-II/Source/os_mutex.o
OSMutexCreate                                     ./lib/./uCOS-II/Source/os_mutex.o
OSMutexDel                                        ./lib/./uCOS-II/Source/os_mutex.o
OSMutexEn                                         ./lib/./uCOS-II/Ports/ARM-Cortex-M3/Generic/GCC/os_dbg.o
OSMutexPend                                       ./lib/./uCOS-II/Source/os_mutex.o
OSMutexPost                                       ./lib/./uCOS-II/Source/os_mutex.o
OSMutexQuery                                      ./lib/./uCOS-II/Source/os_mutex.o
OSPrioCur                                         ./lib/./uCOS-II/Ports/ARM-Cortex-M3/Generic/GCC/os_cpu_a.o
                                                  ./lib/./uCOS-II/Source/os_core.o
OSPrioHighRdy                                     ./lib/./uCOS-II/Ports/ARM-Cortex-M3/Generic/GCC/os_cpu_a.o
                                                  ./lib/./uCOS-II/Source/os_core.o
OSPtrSize                                         ./lib/./uCOS-II/Ports/ARM-Cortex-M3/Generic/GCC/os_dbg.o
OSQAccept                                         ./lib/./uCOS-II/Source/os_q.o
OSQCreate                                         ./lib/./uCOS-II/Source/os_q.o
OSQDel                                            ./lib/./uCOS-II/Source/os_q.o
OSQEn                                             ./lib/./uCOS-II/Ports/ARM-Cortex-M3/Generic/GCC/os_dbg.o
OSQFlush                                          ./lib/./uCOS-II/Source/os_q.o
OSQFreeList                                       ./lib/./uCOS-II/Source/os_q.o
                                                  ./lib/./uCOS-II/Source/os_core.o
OSQMax                                            ./lib/./uCOS-II/Ports/ARM-Cortex-M3/Generic/GCC/os_dbg.o
OSQPend                                           ./lib/./uCOS-II/Source/os_q.o
OSQPendAbort                                      ./lib/./uCOS-II/Source/os_q.o
OSQPost                                           ./lib/./uCOS-II/Source/os_q.o
OSQPostFront                                      ./lib/./uCOS-II/Source/os_q.o
OSQPostOpt                                        ./lib/./uCOS-II/Source/os_q.o
OSQQuery                                          ./lib/./uCOS-II/Source/os_q.o
OSQSize                                           ./lib/./uCOS-II/Ports/ARM-Cortex-M3/Generic/GCC/os_dbg.o
OSQTbl                                            ./lib/./uCOS-II/Source/os_q.o
                                                  ./lib/./uCOS-II/Source/os_core.o
OSRdyGrp                                          ./lib/./uCOS-II/Source/os_time.o
                                                  ./lib/./uCOS-II/Source/os_task.o
                                                  ./lib/./uCOS-II/Source/os_mutex.o
                                                  ./lib/./uCOS-II/Source/os_flag.o
                                                  ./lib/./uCOS-II/Source/os_core.o
OSRdyTbl                                          ./lib/./uCOS-II/Source/os_time.o
                                                  ./lib/./uCOS-II/Source/os_task.o
                                                  ./lib/./uCOS-II/Source/os_mutex.o
                                                  ./lib/./uCOS-II/Source/os_flag.o
                                                  ./lib/./uCOS-II/Source/os_core.o
OSRdyTblSize                                      ./lib/./uCOS-II/Ports/ARM-Cortex-M3/Generic/GCC/os_dbg.o
OSRunning                                         ./lib/./uCOS-II/Ports/ARM-Cortex-M3/Generic/GCC/os_cpu_a.o
                                                  ./lib/./uCOS-II/Source/os_task.o
                                                  ./lib/./uCOS-II/Source/os_core.o
OSSchedLock                                       ./lib/./uCOS-II/Source/os_core.o
OSSchedUnlock                                     ./lib/./uCOS-II/Source/os_core.o
OSSemAccept                                       ./lib/./uCOS-II/Source/os_sem.o
OSSemCreate                                       ./lib/./uCOS-II/Source/os_sem.o
                                                  ./lib/./uCOS-II/Source/os_tmr.o
OSSemDel                                          ./lib/./uCOS-II/Source/os_sem.o
OSSemEn                                           ./lib/./uCOS-II/Ports/ARM-Cortex-M3/Generic/GCC/os_dbg.o
OSSemPend                                         ./lib/./uCOS-II/Source/os_sem.o
                                                  ./lib/./uCOS-II/Source/os_tmr.o
OSSemPendAbort                                    ./lib/./uCOS-II/Source/os_sem.o
OSSemPost                                         ./lib/./uCOS-II/Source/os_sem.o
                                                  ./lib/./uCOS-II/Source/os_tmr.o
OSSemQuery                                        ./lib/./uCOS-II/Source/os_sem.o
OSSemSet                                          ./lib/./uCOS-II/Source/os_sem.o
OSStart                                           ./lib/./uCOS-II/Source/os_core.o
                                                  ./src/application/app.o
OSStartHighRdy                                    ./lib/./uCOS-II/Ports/ARM-Cortex-M3/Generic/GCC/os_cpu_a.o
                                                  ./lib/./uCOS-II/Source/os_core.o
OSStatInit                                        ./lib/./uCOS-II/Source/os_core.o
                                                  ./src/application/app.o
OSStatRdy                                         ./lib/./uCOS-II/Source/os_core.o
OSStkWidth                                        ./lib/./uCOS-II/Ports/ARM-Cortex-M3/Generic/GCC/os_dbg.o
OSTCBCur                                          ./lib/./uCOS-II/Ports/ARM-Cortex-M3/Generic/GCC/os_cpu_a.o
                                                  ./lib/./uCOS-II/Source/os_time.o
                                                  ./lib/./uCOS-II/Source/os_task.o
                                                  ./lib/./uCOS-II/Source/os_sem.o
                                                  ./lib/./uCOS-II/Source/os_q.o
                                                  ./lib/./uCOS-II/Source/os_mutex.o
                                                  ./lib/./uCOS-II/Source/os_mbox.o
                                                  ./lib/./uCOS-II/Source/os_flag.o
                                                  ./lib/./uCOS-II/Source/os_core.o
OSTCBFreeList                                     ./lib/./uCOS-II/Source/os_task.o
                                                  ./lib/./uCOS-II/Source/os_core.o
OSTCBHighRdy                                      ./lib/./uCOS-II/Ports/ARM-Cortex-M3/Generic/GCC/os_cpu_a.o
                                                  ./lib/./uCOS-II/Source/os_core.o
OSTCBInitHook                                     ./lib/./uCOS-II/Ports/ARM-Cortex-M3/Generic/GCC/os_cpu_c.o
                                                  ./lib/./uCOS-II/Source/os_core.o
OSTCBList                                         ./lib/./uCOS-II/Source/os_task.o
                                                  ./lib/./uCOS-II/Source/os_core.o
OSTCBPrioTbl                                      ./lib/./uCOS-II/Source/os_time.o
                                                  ./lib/./uCOS-II/Source/os_task.o
                                                  ./lib/./uCOS-II/Source/os_mutex.o
                                                  ./lib/./uCOS-II/Source/os_core.o
OSTCBPrioTblMax                                   ./lib/./uCOS-II/Ports/ARM-Cortex-M3/Generic/GCC/os_dbg.o
OSTCBSize                                         ./lib/./uCOS-II/Ports/ARM-Cortex-M3/Generic/GCC/os_dbg.o
OSTCBTbl                                          ./lib/./uCOS-II/Source/os_core.o
OSTaskChangePrio                                  ./lib/./uCOS-II/Source/os_task.o
OSTaskCreate                                      ./lib/./uCOS-II/Source/os_task.o
OSTaskCreateEn                                    ./lib/./uCOS-II/Ports/ARM-Cortex-M3/Generic/GCC/os_dbg.o
OSTaskCreateExt                                   ./lib/./uCOS-II/Source/os_task.o
                                                  ./src/application/app.o
                                                  ./lib/./uCOS-II/Source/os_tmr.o
                                                  ./lib/./uCOS-II/Source/os_core.o
OSTaskCreateExtEn                                 ./lib/./uCOS-II/Ports/ARM-Cortex-M3/Generic/GCC/os_dbg.o
OSTaskCreateHook                                  ./lib/./uCOS-II/Ports/ARM-Cortex-M3/Generic/GCC/os_cpu_c.o
                                                  ./lib/./uCOS-II/Source/os_core.o
OSTaskCtr                                         ./lib/./uCOS-II/Source/os_task.o
                                                  ./lib/./uCOS-II/Source/os_core.o
OSTaskDel                                         ./lib/./uCOS-II/Source/os_task.o
OSTaskDelEn                                       ./lib/./uCOS-II/Ports/ARM-Cortex-M3/Generic/GCC/os_dbg.o
OSTaskDelHook                                     ./lib/./uCOS-II/Ports/ARM-Cortex-M3/Generic/GCC/os_cpu_c.o
                                                  ./lib/./uCOS-II/Source/os_task.o
OSTaskDelReq                                      ./lib/./uCOS-II/Source/os_task.o
OSTaskIdleHook                                    ./lib/./uCOS-II/Ports/ARM-Cortex-M3/Generic/GCC/os_cpu_c.o
                                                  ./lib/./uCOS-II/Source/os_core.o
OSTaskIdleStk                                     ./lib/./uCOS-II/Source/os_core.o
OSTaskIdleStkSize                                 ./lib/./uCOS-II/Ports/ARM-Cortex-M3/Generic/GCC/os_dbg.o
OSTaskMax                                         ./lib/./uCOS-II/Ports/ARM-Cortex-M3/Generic/GCC/os_dbg.o
OSTaskNameGet                                     ./lib/./uCOS-II/Source/os_task.o
OSTaskNameSet                                     ./lib/./uCOS-II/Source/os_task.o
                                                  ./src/application/app.o
                                                  ./lib/./uCOS-II/Source/os_tmr.o
                                                  ./lib/./uCOS-II/Source/os_core.o
OSTaskNameSize                                    ./lib/./uCOS-II/Ports/ARM-Cortex-M3/Generic/GCC/os_dbg.o
OSTaskProfileEn                                   ./lib/./uCOS-II/Ports/ARM-Cortex-M3/Generic/GCC/os_dbg.o
OSTaskQuery                                       ./lib/./uCOS-II/Source/os_task.o
OSTaskResume                                      ./lib/./uCOS-II/Source/os_task.o
OSTaskStatEn                                      ./lib/./uCOS-II/Ports/ARM-Cortex-M3/Generic/GCC/os_dbg.o
OSTaskStatHook                                    ./lib/./uCOS-II/Ports/ARM-Cortex-M3/Generic/GCC/os_cpu_c.o
                                                  ./lib/./uCOS-II/Source/os_core.o
OSTaskStatStk                                     ./lib/./uCOS-II/Source/os_core.o
OSTaskStatStkChkEn                                ./lib/./uCOS-II/Ports/ARM-Cortex-M3/Generic/GCC/os_dbg.o
OSTaskStatStkSize                                 ./lib/./uCOS-II/Ports/ARM-Cortex-M3/Generic/GCC/os_dbg.o
OSTaskStkChk                                      ./lib/./uCOS-II/Source/os_task.o
                                                  ./lib/./uCOS-II/Source/os_core.o
OSTaskStkInit                                     ./lib/./uCOS-II/Ports/ARM-Cortex-M3/Generic/GCC/os_cpu_c.o
                                                  ./lib/./uCOS-II/Source/os_task.o
OSTaskSuspend                                     ./lib/./uCOS-II/Source/os_task.o
                                                  ./lib/./uCOS-II/Source/os_core.o
OSTaskSwHook                                      ./lib/./uCOS-II/Ports/ARM-Cortex-M3/Generic/GCC/os_cpu_c.o
                                                  ./lib/./uCOS-II/Ports/ARM-Cortex-M3/Generic/GCC/os_cpu_a.o
OSTaskSwHookEn                                    ./lib/./uCOS-II/Ports/ARM-Cortex-M3/Generic/GCC/os_dbg.o
OSTickStepState                                   ./lib/./uCOS-II/Source/os_core.o
OSTicksPerSec                                     ./lib/./uCOS-II/Ports/ARM-Cortex-M3/Generic/GCC/os_dbg.o
OSTime                                            ./lib/./uCOS-II/Source/os_time.o
                                                  ./lib/./uCOS-II/Source/os_core.o
OSTimeDly                                         ./lib/./uCOS-II/Source/os_time.o
                                                  ./src/application/app.o
                                                  ./lib/./uCOS-II/Source/os_core.o
OSTimeDlyHMSM                                     ./lib/./uCOS-II/Source/os_time.o
OSTimeDlyResume                                   ./lib/./uCOS-II/Source/os_time.o
OSTimeGet                                         ./lib/./uCOS-II/Source/os_time.o
OSTimeSet                                         ./lib/./uCOS-II/Source/os_time.o
OSTimeTick                                        ./lib/./uCOS-II/Source/os_core.o
                                                  ./src/bsp/bsp.o
                                                  ./lib/./uCOS-II/Ports/ARM-Cortex-M3/Generic/GCC/os_cpu_c.o
OSTimeTickHook                                    ./lib/./uCOS-II/Ports/ARM-Cortex-M3/Generic/GCC/os_cpu_c.o
                                                  ./lib/./uCOS-II/Source/os_core.o
OSTimeTickHookEn                                  ./lib/./uCOS-II/Ports/ARM-Cortex-M3/Generic/GCC/os_dbg.o
OSTmrCreate                                       ./lib/./uCOS-II/Source/os_tmr.o
OSTmrDel                                          ./lib/./uCOS-II/Source/os_tmr.o
OSTmrFree                                         ./lib/./uCOS-II/Source/os_tmr.o
                                                  ./lib/./uCOS-II/Source/os_core.o
OSTmrFreeList                                     ./lib/./uCOS-II/Source/os_tmr.o
                                                  ./lib/./uCOS-II/Source/os_core.o
OSTmrNameGet                                      ./lib/./uCOS-II/Source/os_tmr.o
OSTmrRemainGet                                    ./lib/./uCOS-II/Source/os_tmr.o
OSTmrSem                                          ./lib/./uCOS-II/Source/os_tmr.o
                                                  ./lib/./uCOS-II/Source/os_core.o
OSTmrSemSignal                                    ./lib/./uCOS-II/Source/os_tmr.o
                                                  ./lib/./uCOS-II/Source/os_core.o
OSTmrSignal                                       ./lib/./uCOS-II/Source/os_tmr.o
                                                  ./lib/./uCOS-II/Ports/ARM-Cortex-M3/Generic/GCC/os_cpu_c.o
OSTmrStart                                        ./lib/./uCOS-II/Source/os_tmr.o
OSTmrStateGet                                     ./lib/./uCOS-II/Source/os_tmr.o
OSTmrStop                                         ./lib/./uCOS-II/Source/os_tmr.o
OSTmrTaskStk                                      ./lib/./uCOS-II/Source/os_tmr.o
                                                  ./lib/./uCOS-II/Source/os_core.o
OSTmrTbl                                          ./lib/./uCOS-II/Source/os_tmr.o
                                                  ./lib/./uCOS-II/Source/os_core.o
OSTmrTime                                         ./lib/./uCOS-II/Source/os_tmr.o
                                                  ./lib/./uCOS-II/Source/os_core.o
OSTmrUsed                                         ./lib/./uCOS-II/Source/os_tmr.o
                                                  ./lib/./uCOS-II/Source/os_core.o
OSTmrWheelTbl                                     ./lib/./uCOS-II/Source/os_tmr.o
                                                  ./lib/./uCOS-II/Source/os_core.o
OSTmr_Init                                        ./lib/./uCOS-II/Source/os_tmr.o
                                                  ./lib/./uCOS-II/Source/os_core.o
OSUnMapTbl                                        ./lib/./uCOS-II/Source/os_core.o
OSVersion                                         ./lib/./uCOS-II/Source/os_core.o
OSVersionNbr                                      ./lib/./uCOS-II/Ports/ARM-Cortex-M3/Generic/GCC/os_dbg.o
OS_CPU_PendSVHandler                              ./lib/./uCOS-II/Ports/ARM-Cortex-M3/Generic/GCC/os_cpu_a.o
                                                  ./src/bsp/app_vect.o
OS_CPU_SR_Restore                                 ./lib/./uCOS-II/Ports/ARM-Cortex-M3/Generic/GCC/os_cpu_a.o
                                                  ./src/bsp/bsp.o
                                                  ./lib/./uCOS-II/Source/os_time.o
                                                  ./lib/./uCOS-II/Source/os_task.o
                                                  ./lib/./uCOS-II/Source/os_sem.o
                                                  ./lib/./uCOS-II/Source/os_q.o
                                                  ./lib/./uCOS-II/Source/os_mutex.o
                                                  ./lib/./uCOS-II/Source/os_mem.o
                                                  ./lib/./uCOS-II/Source/os_mbox.o
                                                  ./lib/./uCOS-II/Source/os_flag.o
                                                  ./lib/./uCOS-II/Source/os_core.o
                                                  ./lib/./uCOS-II/Ports/ARM-Cortex-M3/Generic/GCC/os_cpu_c.o
OS_CPU_SR_Save                                    ./lib/./uCOS-II/Ports/ARM-Cortex-M3/Generic/GCC/os_cpu_a.o
                                                  ./src/bsp/bsp.o
                                                  ./lib/./uCOS-II/Source/os_time.o
                                                  ./lib/./uCOS-II/Source/os_task.o
                                                  ./lib/./uCOS-II/Source/os_sem.o
                                                  ./lib/./uCOS-II/Source/os_q.o
                                                  ./lib/./uCOS-II/Source/os_mutex.o
                                                  ./lib/./uCOS-II/Source/os_mem.o
                                                  ./lib/./uCOS-II/Source/os_mbox.o
                                                  ./lib/./uCOS-II/Source/os_flag.o
                                                  ./lib/./uCOS-II/Source/os_core.o
                                                  ./lib/./uCOS-II/Ports/ARM-Cortex-M3/Generic/GCC/os_cpu_c.o
OS_CPU_SysTickHandler                             ./lib/./uCOS-II/Ports/ARM-Cortex-M3/Generic/GCC/os_cpu_c.o
OS_CPU_SysTickInit                                ./lib/./uCOS-II/Ports/ARM-Cortex-M3/Generic/GCC/os_cpu_c.o
                                                  ./src/application/app.o
OS_Dummy                                          ./lib/./uCOS-II/Source/os_core.o
                                                  ./lib/./uCOS-II/Source/os_task.o
OS_EventTaskRdy                                   ./lib/./uCOS-II/Source/os_core.o
                                                  ./lib/./uCOS-II/Source/os_sem.o
                                                  ./lib/./uCOS-II/Source/os_q.o
                                                  ./lib/./uCOS-II/Source/os_mutex.o
                                                  ./lib/./uCOS-II/Source/os_mbox.o
OS_EventTaskRemove                                ./lib/./uCOS-II/Source/os_core.o
                                                  ./lib/./uCOS-II/Source/os_task.o
                                                  ./lib/./uCOS-II/Source/os_sem.o
                                                  ./lib/./uCOS-II/Source/os_q.o
                                                  ./lib/./uCOS-II/Source/os_mutex.o
                                                  ./lib/./uCOS-II/Source/os_mbox.o
OS_EventTaskRemoveMulti                           ./lib/./uCOS-II/Source/os_core.o
                                                  ./lib/./uCOS-II/Source/os_task.o
OS_EventTaskWait                                  ./lib/./uCOS-II/Source/os_core.o
                                                  ./lib/./uCOS-II/Source/os_sem.o
                                                  ./lib/./uCOS-II/Source/os_q.o
                                                  ./lib/./uCOS-II/Source/os_mutex.o
                                                  ./lib/./uCOS-II/Source/os_mbox.o
OS_EventTaskWaitMulti                             ./lib/./uCOS-II/Source/os_core.o
OS_EventWaitListInit                              ./lib/./uCOS-II/Source/os_core.o
                                                  ./lib/./uCOS-II/Source/os_sem.o
                                                  ./lib/./uCOS-II/Source/os_q.o
                                                  ./lib/./uCOS-II/Source/os_mutex.o
                                                  ./lib/./uCOS-II/Source/os_mbox.o
OS_FlagInit                                       ./lib/./uCOS-II/Source/os_flag.o
                                                  ./lib/./uCOS-II/Source/os_core.o
OS_FlagUnlink                                     ./lib/./uCOS-II/Source/os_flag.o
                                                  ./lib/./uCOS-II/Source/os_task.o
OS_MemClr                                         ./lib/./uCOS-II/Source/os_core.o
                                                  ./lib/./uCOS-II/Source/os_tmr.o
                                                  ./lib/./uCOS-II/Source/os_q.o
                                                  ./lib/./uCOS-II/Source/os_mem.o
                                                  ./lib/./uCOS-II/Source/os_flag.o
OS_MemCopy                                        ./lib/./uCOS-II/Source/os_core.o
                                                  ./lib/./uCOS-II/Source/os_task.o
OS_MemInit                                        ./lib/./uCOS-II/Source/os_mem.o
                                                  ./lib/./uCOS-II/Source/os_core.o
OS_QInit                                          ./lib/./uCOS-II/Source/os_q.o
                                                  ./lib/./uCOS-II/Source/os_core.o
OS_Sched                                          ./lib/./uCOS-II/Source/os_core.o
                                                  ./lib/./uCOS-II/Source/os_time.o
                                                  ./lib/./uCOS-II/Source/os_task.o
                                                  ./lib/./uCOS-II/Source/os_sem.o
                                                  ./lib/./uCOS-II/Source/os_q.o
                                                  ./lib/./uCOS-II/Source/os_mutex.o
                                                  ./lib/./uCOS-II/Source/os_mbox.o
                                                  ./lib/./uCOS-II/Source/os_flag.o
OS_StrCopy                                        ./lib/./uCOS-II/Source/os_core.o
                                                  ./lib/./uCOS-II/Source/os_tmr.o
                                                  ./lib/./uCOS-II/Source/os_task.o
                                                  ./lib/./uCOS-II/Source/os_mem.o
                                                  ./lib/./uCOS-II/Source/os_flag.o
OS_StrLen                                         ./lib/./uCOS-II/Source/os_core.o
                                                  ./lib/./uCOS-II/Source/os_tmr.o
                                                  ./lib/./uCOS-II/Source/os_task.o
                                                  ./lib/./uCOS-II/Source/os_mem.o
                                                  ./lib/./uCOS-II/Source/os_flag.o
OS_TCBInit                                        ./lib/./uCOS-II/Source/os_core.o
                                                  ./lib/./uCOS-II/Source/os_task.o
OS_TaskIdle                                       ./lib/./uCOS-II/Source/os_core.o
OS_TaskStat                                       ./lib/./uCOS-II/Source/os_core.o
OS_TaskStatStkChk                                 ./lib/./uCOS-II/Source/os_core.o
OS_TaskStkClr                                     ./lib/./uCOS-II/Source/os_task.o
Out0_Process                                      ./lib/./STM32_USB-FS-Device_Driver/src/usb_core.o
                                                  ./lib/./STM32_USB-FS-Device_Driver/src/usb_int.o
PMAToUserBufferCopy                               ./lib/./STM32_USB-FS-Device_Driver/src/usb_mem.o
                                                  ./lib/./STM32_USB-FS-Device_Driver/src/usb_sil.o
                                                  ./lib/./STM32_USB-FS-Device_Driver/src/usb_core.o
PVD_IRQHandler                                    ./src/bsp/app_int.o
                                                  ./src/bsp/app_vect.o
PWR_BackupAccessCmd                               ./lib/./STM32F10x_StdPeriph_Driver/src/stm32f10x_pwr.o
PWR_ClearFlag                                     ./lib/./STM32F10x_StdPeriph_Driver/src/stm32f10x_pwr.o
PWR_DeInit                                        ./lib/./STM32F10x_StdPeriph_Driver/src/stm32f10x_pwr.o
PWR_EnterSTANDBYMode                              ./lib/./STM32F10x_StdPeriph_Driver/src/stm32f10x_pwr.o
PWR_EnterSTOPMode                                 ./lib/./STM32F10x_StdPeriph_Driver/src/stm32f10x_pwr.o
PWR_GetFlagStatus                                 ./lib/./STM32F10x_StdPeriph_Driver/src/stm32f10x_pwr.o
PWR_PVDCmd                                        ./lib/./STM32F10x_StdPeriph_Driver/src/stm32f10x_pwr.o
PWR_PVDLevelConfig                                ./lib/./STM32F10x_StdPeriph_Driver/src/stm32f10x_pwr.o
PWR_WakeUpPinCmd                                  ./lib/./STM32F10x_StdPeriph_Driver/src/stm32f10x_pwr.o
PendSVCHandler                                    ./src/bsp/app_int.o
Post0_Process                                     ./lib/./STM32_USB-FS-Device_Driver/src/usb_core.o
PowerOff                                          ./src/usb/usb_pwr.o
PowerOn                                           ./src/usb/usb_pwr.o
                                                  ./src/usb/usb_prop.o
RCC_ADCCLKConfig                                  ./lib/./STM32F10x_StdPeriph_Driver/src/stm32f10x_rcc.o
                                                  ./src/bsp/bsp.o
RCC_AHBPeriphClockCmd                             ./lib/./STM32F10x_StdPeriph_Driver/src/stm32f10x_rcc.o
                                                  ./src/bsp/sdcard.o
RCC_APB1PeriphClockCmd                            ./lib/./STM32F10x_StdPeriph_Driver/src/stm32f10x_rcc.o
                                                  ./src/usb/hw_config.o
                                                  ./src/bsp/bsp.o
RCC_APB1PeriphResetCmd                            ./lib/./STM32F10x_StdPeriph_Driver/src/stm32f10x_rcc.o
                                                  ./lib/./STM32F10x_StdPeriph_Driver/src/stm32f10x_pwr.o
                                                  ./lib/./STM32F10x_StdPeriph_Driver/src/stm32f10x_tim.o
                                                  ./lib/./STM32F10x_StdPeriph_Driver/src/stm32f10x_dac.o
                                                  ./lib/./STM32F10x_StdPeriph_Driver/src/stm32f10x_i2c.o
                                                  ./lib/./STM32F10x_StdPeriph_Driver/src/stm32f10x_usart.o
RCC_APB2PeriphClockCmd                            ./lib/./STM32F10x_StdPeriph_Driver/src/stm32f10x_rcc.o
                                                  ./src/sram/fsmc_sram.o
                                                  ./src/bsp/sdcard.o
                                                  ./src/bsp/bsp.o
RCC_APB2PeriphResetCmd                            ./lib/./STM32F10x_StdPeriph_Driver/src/stm32f10x_rcc.o
                                                  ./lib/./STM32F10x_StdPeriph_Driver/src/stm32f10x_tim.o
                                                  ./lib/./STM32F10x_StdPeriph_Driver/src/stm32f10x_adc.o
                                                  ./lib/./STM32F10x_StdPeriph_Driver/src/stm32f10x_usart.o
                                                  ./lib/./STM32F10x_StdPeriph_Driver/src/stm32f10x_gpio.o
RCC_AdjustHSICalibrationValue                     ./lib/./STM32F10x_StdPeriph_Driver/src/stm32f10x_rcc.o
RCC_BackupResetCmd                                ./lib/./STM32F10x_StdPeriph_Driver/src/stm32f10x_rcc.o
                                                  ./lib/./STM32F10x_StdPeriph_Driver/src/stm32f10x_bkp.o
RCC_ClearFlag                                     ./lib/./STM32F10x_StdPeriph_Driver/src/stm32f10x_rcc.o
RCC_ClearITPendingBit                             ./lib/./STM32F10x_StdPeriph_Driver/src/stm32f10x_rcc.o
RCC_ClockSecuritySystemCmd                        ./lib/./STM32F10x_StdPeriph_Driver/src/stm32f10x_rcc.o
RCC_DeInit                                        ./lib/./STM32F10x_StdPeriph_Driver/src/stm32f10x_rcc.o
                                                  ./src/usb/hw_config.o
                                                  ./src/bsp/bsp.o
RCC_GetClocksFreq                                 ./lib/./STM32F10x_StdPeriph_Driver/src/stm32f10x_rcc.o
                                                  ./src/bsp/bsp.o
                                                  ./lib/./STM32F10x_StdPeriph_Driver/src/stm32f10x_i2c.o
                                                  ./lib/./STM32F10x_StdPeriph_Driver/src/stm32f10x_usart.o
RCC_GetFlagStatus                                 ./lib/./STM32F10x_StdPeriph_Driver/src/stm32f10x_rcc.o
                                                  ./src/usb/hw_config.o
                                                  ./src/bsp/bsp.o
RCC_GetITStatus                                   ./lib/./STM32F10x_StdPeriph_Driver/src/stm32f10x_rcc.o
RCC_GetSYSCLKSource                               ./lib/./STM32F10x_StdPeriph_Driver/src/stm32f10x_rcc.o
                                                  ./src/usb/hw_config.o
                                                  ./src/bsp/bsp.o
RCC_HCLKConfig                                    ./lib/./STM32F10x_StdPeriph_Driver/src/stm32f10x_rcc.o
                                                  ./src/usb/hw_config.o
                                                  ./src/bsp/bsp.o
RCC_HSEConfig                                     ./lib/./STM32F10x_StdPeriph_Driver/src/stm32f10x_rcc.o
                                                  ./src/usb/hw_config.o
                                                  ./src/bsp/bsp.o
RCC_HSICmd                                        ./lib/./STM32F10x_StdPeriph_Driver/src/stm32f10x_rcc.o
RCC_IRQHandler                                    ./src/bsp/app_int.o
                                                  ./src/bsp/app_vect.o
RCC_ITConfig                                      ./lib/./STM32F10x_StdPeriph_Driver/src/stm32f10x_rcc.o
RCC_LSEConfig                                     ./lib/./STM32F10x_StdPeriph_Driver/src/stm32f10x_rcc.o
RCC_LSICmd                                        ./lib/./STM32F10x_StdPeriph_Driver/src/stm32f10x_rcc.o
RCC_MCOConfig                                     ./lib/./STM32F10x_StdPeriph_Driver/src/stm32f10x_rcc.o
RCC_PCLK1Config                                   ./lib/./STM32F10x_StdPeriph_Driver/src/stm32f10x_rcc.o
                                                  ./src/usb/hw_config.o
                                                  ./src/bsp/bsp.o
RCC_PCLK2Config                                   ./lib/./STM32F10x_StdPeriph_Driver/src/stm32f10x_rcc.o
                                                  ./src/usb/hw_config.o
                                                  ./src/bsp/bsp.o
RCC_PLLCmd                                        ./lib/./STM32F10x_StdPeriph_Driver/src/stm32f10x_rcc.o
                                                  ./src/usb/hw_config.o
                                                  ./src/bsp/bsp.o
RCC_PLLConfig                                     ./lib/./STM32F10x_StdPeriph_Driver/src/stm32f10x_rcc.o
                                                  ./src/usb/hw_config.o
                                                  ./src/bsp/bsp.o
RCC_RTCCLKCmd                                     ./lib/./STM32F10x_StdPeriph_Driver/src/stm32f10x_rcc.o
RCC_RTCCLKConfig                                  ./lib/./STM32F10x_StdPeriph_Driver/src/stm32f10x_rcc.o
RCC_SYSCLKConfig                                  ./lib/./STM32F10x_StdPeriph_Driver/src/stm32f10x_rcc.o
                                                  ./src/usb/hw_config.o
                                                  ./src/bsp/bsp.o
RCC_USBCLKConfig                                  ./lib/./STM32F10x_StdPeriph_Driver/src/stm32f10x_rcc.o
                                                  ./src/usb/hw_config.o
RCC_WaitForHSEStartUp                             ./lib/./STM32F10x_StdPeriph_Driver/src/stm32f10x_rcc.o
                                                  ./src/usb/hw_config.o
                                                  ./src/bsp/bsp.o
RTCAlarm_IRQHandler                               ./src/bsp/app_int.o
                                                  ./src/bsp/app_vect.o
RTC_IRQHandler                                    ./src/bsp/app_int.o
                                                  ./src/bsp/app_vect.o
Request                                           ./src/usb/usb_prop.o
Reset_Handler                                     ./src/bsp/stm32f10x_startup.o
                                                  ./src/bsp/app_vect.o
Resume                                            ./src/usb/usb_pwr.o
ResumeS                                           ./src/usb/usb_pwr.o
Resume_Init                                       ./src/usb/usb_pwr.o
SDCardInfo                                        ./src/bsp/bsp.o
SDIO_CEATAITCmd                                   ./lib/./STM32F10x_StdPeriph_Driver/src/stm32f10x_sdio.o
SDIO_ClearFlag                                    ./lib/./STM32F10x_StdPeriph_Driver/src/stm32f10x_sdio.o
                                                  ./src/bsp/sdcard.o
SDIO_ClearITPendingBit                            ./lib/./STM32F10x_StdPeriph_Driver/src/stm32f10x_sdio.o
                                                  ./src/bsp/sdcard.o
SDIO_ClockCmd                                     ./lib/./STM32F10x_StdPeriph_Driver/src/stm32f10x_sdio.o
                                                  ./src/bsp/sdcard.o
SDIO_CmdInitStructure                             ./src/bsp/sdcard.o
SDIO_CmdStructInit                                ./lib/./STM32F10x_StdPeriph_Driver/src/stm32f10x_sdio.o
SDIO_CommandCompletionCmd                         ./lib/./STM32F10x_StdPeriph_Driver/src/stm32f10x_sdio.o
SDIO_DMACmd                                       ./lib/./STM32F10x_StdPeriph_Driver/src/stm32f10x_sdio.o
                                                  ./src/bsp/sdcard.o
SDIO_DataConfig                                   ./lib/./STM32F10x_StdPeriph_Driver/src/stm32f10x_sdio.o
                                                  ./src/bsp/sdcard.o
SDIO_DataInitStructure                            ./src/bsp/sdcard.o
SDIO_DataStructInit                               ./lib/./STM32F10x_StdPeriph_Driver/src/stm32f10x_sdio.o
SDIO_DeInit                                       ./lib/./STM32F10x_StdPeriph_Driver/src/stm32f10x_sdio.o
                                                  ./src/bsp/sdcard.o
SDIO_GetCommandResponse                           ./lib/./STM32F10x_StdPeriph_Driver/src/stm32f10x_sdio.o
                                                  ./src/bsp/sdcard.o
SDIO_GetDataCounter                               ./lib/./STM32F10x_StdPeriph_Driver/src/stm32f10x_sdio.o
SDIO_GetFIFOCount                                 ./lib/./STM32F10x_StdPeriph_Driver/src/stm32f10x_sdio.o
SDIO_GetFlagStatus                                ./lib/./STM32F10x_StdPeriph_Driver/src/stm32f10x_sdio.o
                                                  ./src/bsp/sdcard.o
SDIO_GetITStatus                                  ./lib/./STM32F10x_StdPeriph_Driver/src/stm32f10x_sdio.o
                                                  ./src/bsp/sdcard.o
SDIO_GetPowerState                                ./lib/./STM32F10x_StdPeriph_Driver/src/stm32f10x_sdio.o
                                                  ./src/bsp/sdcard.o
SDIO_GetResponse                                  ./lib/./STM32F10x_StdPeriph_Driver/src/stm32f10x_sdio.o
                                                  ./src/bsp/sdcard.o
SDIO_IRQHandler                                   ./src/bsp/app_int.o
                                                  ./src/bsp/app_vect.o
SDIO_ITConfig                                     ./lib/./STM32F10x_StdPeriph_Driver/src/stm32f10x_sdio.o
                                                  ./src/bsp/sdcard.o
SDIO_Init                                         ./lib/./STM32F10x_StdPeriph_Driver/src/stm32f10x_sdio.o
                                                  ./src/bsp/sdcard.o
SDIO_InitStructure                                ./src/bsp/sdcard.o
SDIO_ReadData                                     ./lib/./STM32F10x_StdPeriph_Driver/src/stm32f10x_sdio.o
                                                  ./src/bsp/sdcard.o
SDIO_SendCEATACmd                                 ./lib/./STM32F10x_StdPeriph_Driver/src/stm32f10x_sdio.o
SDIO_SendCommand                                  ./lib/./STM32F10x_StdPeriph_Driver/src/stm32f10x_sdio.o
                                                  ./src/bsp/sdcard.o
SDIO_SendSDIOSuspendCmd                           ./lib/./STM32F10x_StdPeriph_Driver/src/stm32f10x_sdio.o
SDIO_SetPowerState                                ./lib/./STM32F10x_StdPeriph_Driver/src/stm32f10x_sdio.o
                                                  ./src/bsp/sdcard.o
SDIO_SetSDIOOperation                             ./lib/./STM32F10x_StdPeriph_Driver/src/stm32f10x_sdio.o
SDIO_SetSDIOReadWaitMode                          ./lib/./STM32F10x_StdPeriph_Driver/src/stm32f10x_sdio.o
SDIO_StartSDIOReadWait                            ./lib/./STM32F10x_StdPeriph_Driver/src/stm32f10x_sdio.o
SDIO_StopSDIOReadWait                             ./lib/./STM32F10x_StdPeriph_Driver/src/stm32f10x_sdio.o
SDIO_StructInit                                   ./lib/./STM32F10x_StdPeriph_Driver/src/stm32f10x_sdio.o
SDIO_WriteData                                    ./lib/./STM32F10x_StdPeriph_Driver/src/stm32f10x_sdio.o
                                                  ./src/bsp/sdcard.o
SD_EnableWideBusOperation                         ./src/bsp/sdcard.o
                                                  ./src/bsp/bsp.o
SD_Erase                                          ./src/bsp/sdcard.o
                                                  ./src/bsp/bsp.o
SD_GetCardInfo                                    ./src/bsp/sdcard.o
                                                  ./src/bsp/bsp.o
SD_GetTransferState                               ./src/bsp/sdcard.o
SD_Init                                           ./src/bsp/sdcard.o
                                                  ./src/bsp/bsp.o
SD_InitializeCards                                ./src/bsp/sdcard.o
SD_PowerOFF                                       ./src/bsp/sdcard.o
SD_PowerON                                        ./src/bsp/sdcard.o
SD_ProcessIRQSrc                                  ./src/bsp/sdcard.o
                                                  ./src/bsp/app_int.o
SD_ReadBlock                                      ./src/bsp/sdcard.o
                                                  ./src/bsp/bsp.o
SD_ReadMultiBlocks                                ./src/bsp/sdcard.o
                                                  ./src/bsp/bsp.o
SD_SelectDeselect                                 ./src/bsp/sdcard.o
                                                  ./src/bsp/bsp.o
SD_SendSDStatus                                   ./src/bsp/sdcard.o
SD_SendStatus                                     ./src/bsp/sdcard.o
SD_SetDeviceMode                                  ./src/bsp/sdcard.o
                                                  ./src/bsp/bsp.o
SD_StopTransfer                                   ./src/bsp/sdcard.o
SD_WriteBlock                                     ./src/bsp/sdcard.o
                                                  ./src/bsp/bsp.o
SD_WriteMultiBlocks                               ./src/bsp/sdcard.o
SPI1_IRQHandler                                   ./src/bsp/app_int.o
                                                  ./src/bsp/app_vect.o
SPI2_IRQHandler                                   ./src/bsp/app_int.o
                                                  ./src/bsp/app_vect.o
SPI3_IRQHandler                                   ./src/bsp/app_int.o
                                                  ./src/bsp/app_vect.o
SVCHandler                                        ./src/bsp/app_int.o
                                                  ./src/bsp/app_vect.o
SW0_STATE                                         ./src/bsp/bsp_globals.o
SW1_STATE                                         ./src/bsp/bsp_globals.o
SW2_STATE                                         ./src/bsp/bsp_globals.o
SW3_STATE                                         ./src/bsp/bsp_globals.o
SW4_STATE                                         ./src/bsp/bsp_globals.o
SW5_STATE                                         ./src/bsp/bsp_globals.o
SW6_STATE                                         ./src/bsp/bsp_globals.o
SW7_STATE                                         ./src/bsp/bsp_globals.o
SWITCH_CLK                                        ./src/bsp/bsp.o
SWITCH_PIN                                        ./src/bsp/bsp.o
SWITCH_PORT                                       ./src/bsp/bsp.o
SaveRState                                        ./lib/./STM32_USB-FS-Device_Driver/src/usb_int.o
                                                  ./lib/./STM32_USB-FS-Device_Driver/src/usb_core.o
SaveState                                         ./lib/./STM32_USB-FS-Device_Driver/src/usb_init.o
SaveTState                                        ./lib/./STM32_USB-FS-Device_Driver/src/usb_int.o
                                                  ./lib/./STM32_USB-FS-Device_Driver/src/usb_core.o
SetBTABLE                                         ./lib/./STM32_USB-FS-Device_Driver/src/usb_regs.o
                                                  ./src/usb/usb_prop.o
SetCNTR                                           ./lib/./STM32_USB-FS-Device_Driver/src/usb_regs.o
SetDADDR                                          ./lib/./STM32_USB-FS-Device_Driver/src/usb_regs.o
SetDeviceAddress                                  ./lib/./STM32_USB-FS-Device_Driver/src/usb_core.o
                                                  ./src/usb/usb_prop.o
SetDouBleBuffEPStall                              ./lib/./STM32_USB-FS-Device_Driver/src/usb_regs.o
SetENDPOINT                                       ./lib/./STM32_USB-FS-Device_Driver/src/usb_regs.o
SetEPAddress                                      ./lib/./STM32_USB-FS-Device_Driver/src/usb_regs.o
SetEPCountRxReg                                   ./lib/./STM32_USB-FS-Device_Driver/src/usb_regs.o
SetEPDblBuf0Addr                                  ./lib/./STM32_USB-FS-Device_Driver/src/usb_regs.o
SetEPDblBuf0Count                                 ./lib/./STM32_USB-FS-Device_Driver/src/usb_regs.o
SetEPDblBuf1Addr                                  ./lib/./STM32_USB-FS-Device_Driver/src/usb_regs.o
SetEPDblBuf1Count                                 ./lib/./STM32_USB-FS-Device_Driver/src/usb_regs.o
SetEPDblBuffAddr                                  ./lib/./STM32_USB-FS-Device_Driver/src/usb_regs.o
SetEPDblBuffCount                                 ./lib/./STM32_USB-FS-Device_Driver/src/usb_regs.o
SetEPDoubleBuff                                   ./lib/./STM32_USB-FS-Device_Driver/src/usb_regs.o
SetEPRxAddr                                       ./lib/./STM32_USB-FS-Device_Driver/src/usb_regs.o
                                                  ./src/usb/usb_prop.o
SetEPRxCount                                      ./lib/./STM32_USB-FS-Device_Driver/src/usb_regs.o
                                                  ./src/usb/usb_prop.o
                                                  ./lib/./STM32_USB-FS-Device_Driver/src/usb_core.o
SetEPRxStatus                                     ./lib/./STM32_USB-FS-Device_Driver/src/usb_regs.o
                                                  ./src/usb/usb_prop.o
SetEPRxValid                                      ./lib/./STM32_USB-FS-Device_Driver/src/usb_regs.o
                                                  ./src/usb/usb_prop.o
                                                  ./src/usb/usb_endp.o
SetEPTxAddr                                       ./lib/./STM32_USB-FS-Device_Driver/src/usb_regs.o
                                                  ./src/usb/usb_prop.o
SetEPTxCount                                      ./lib/./STM32_USB-FS-Device_Driver/src/usb_regs.o
                                                  ./lib/./STM32_USB-FS-Device_Driver/src/usb_sil.o
                                                  ./lib/./STM32_USB-FS-Device_Driver/src/usb_core.o
SetEPTxStatus                                     ./lib/./STM32_USB-FS-Device_Driver/src/usb_regs.o
                                                  ./src/usb/usb_prop.o
                                                  ./lib/./STM32_USB-FS-Device_Driver/src/usb_core.o
SetEPTxValid                                      ./lib/./STM32_USB-FS-Device_Driver/src/usb_regs.o
                                                  ./src/usb/hw_config.o
SetEPType                                         ./lib/./STM32_USB-FS-Device_Driver/src/usb_regs.o
                                                  ./src/usb/usb_prop.o
SetEP_KIND                                        ./lib/./STM32_USB-FS-Device_Driver/src/usb_regs.o
SetISTR                                           ./lib/./STM32_USB-FS-Device_Driver/src/usb_regs.o
Set_Status_Out                                    ./lib/./STM32_USB-FS-Device_Driver/src/usb_regs.o
Set_System                                        ./src/usb/hw_config.o
Set_USBClock                                      ./src/usb/hw_config.o
                                                  ./src/bsp/bsp.o
Setup0_Process                                    ./lib/./STM32_USB-FS-Device_Driver/src/usb_core.o
                                                  ./lib/./STM32_USB-FS-Device_Driver/src/usb_int.o
SrcBuffer                                         ./src/bsp/sdcard.o
Standard_ClearFeature                             ./lib/./STM32_USB-FS-Device_Driver/src/usb_core.o
Standard_GetConfiguration                         ./lib/./STM32_USB-FS-Device_Driver/src/usb_core.o
Standard_GetDescriptorData                        ./lib/./STM32_USB-FS-Device_Driver/src/usb_core.o
                                                  ./src/usb/usb_prop.o
Standard_GetInterface                             ./lib/./STM32_USB-FS-Device_Driver/src/usb_core.o
Standard_GetStatus                                ./lib/./STM32_USB-FS-Device_Driver/src/usb_core.o
Standard_SetConfiguration                         ./lib/./STM32_USB-FS-Device_Driver/src/usb_core.o
Standard_SetDeviceFeature                         ./lib/./STM32_USB-FS-Device_Driver/src/usb_core.o
Standard_SetEndPointFeature                       ./lib/./STM32_USB-FS-Device_Driver/src/usb_core.o
Standard_SetInterface                             ./lib/./STM32_USB-FS-Device_Driver/src/usb_core.o
Status                                            ./src/bsp/bsp.o
StatusInfo                                        ./lib/./STM32_USB-FS-Device_Driver/src/usb_core.o
String_Descriptor                                 ./src/usb/usb_prop.o
Suspend                                           ./src/usb/usb_pwr.o
SysTickHandler                                    ./src/bsp/app_int.o
SysTick_CLKSourceConfig                           ./lib/./STM32F10x_StdPeriph_Driver/src/misc.o
SystemFrequency                                   ./src/bsp/bsp.o
SystemFrequency_AHBClk                            ./src/bsp/bsp.o
SystemFrequency_APB1Clk                           ./src/bsp/bsp.o
SystemFrequency_APB2Clk                           ./src/bsp/bsp.o
SystemFrequency_SysClk                            ./src/bsp/bsp.o
SystemInit                                        ./src/bsp/bsp.o
TAMPER_IRQHandler                                 ./src/bsp/app_int.o
                                                  ./src/bsp/app_vect.o
TIM1_BRK_IRQHandler                               ./src/bsp/app_int.o
                                                  ./src/bsp/app_vect.o
TIM1_CC_IRQHandler                                ./src/bsp/app_int.o
                                                  ./src/bsp/app_vect.o
TIM1_TRG_COM_IRQHandler                           ./src/bsp/app_int.o
                                                  ./src/bsp/app_vect.o
TIM1_UP_IRQHandler                                ./src/bsp/app_int.o
                                                  ./src/bsp/app_vect.o
TIM2_IRQHandler                                   ./src/bsp/app_int.o
                                                  ./src/bsp/app_vect.o
TIM3_IRQHandler                                   ./src/bsp/app_int.o
                                                  ./src/bsp/app_vect.o
TIM4_IRQHandler                                   ./src/bsp/app_int.o
                                                  ./src/bsp/app_vect.o
TIM5_IRQHandler                                   ./src/bsp/app_int.o
                                                  ./src/bsp/app_vect.o
TIM6_IRQHandler                                   ./src/bsp/app_int.o
                                                  ./src/bsp/app_vect.o
TIM7_IRQHandler                                   ./src/bsp/app_int.o
                                                  ./src/bsp/app_vect.o
TIM8_BRK_IRQHandler                               ./src/bsp/app_int.o
                                                  ./src/bsp/app_vect.o
TIM8_CC_IRQHandler                                ./src/bsp/app_int.o
                                                  ./src/bsp/app_vect.o
TIM8_TRG_COM_IRQHandler                           ./src/bsp/app_int.o
                                                  ./src/bsp/app_vect.o
TIM8_UP_IRQHandler                                ./src/bsp/app_int.o
                                                  ./src/bsp/app_vect.o
TIM_ARRPreloadConfig                              ./lib/./STM32F10x_StdPeriph_Driver/src/stm32f10x_tim.o
TIM_BDTRConfig                                    ./lib/./STM32F10x_StdPeriph_Driver/src/stm32f10x_tim.o
TIM_BDTRStructInit                                ./lib/./STM32F10x_StdPeriph_Driver/src/stm32f10x_tim.o
TIM_CCPreloadControl                              ./lib/./STM32F10x_StdPeriph_Driver/src/stm32f10x_tim.o
TIM_CCxCmd                                        ./lib/./STM32F10x_StdPeriph_Driver/src/stm32f10x_tim.o
TIM_CCxNCmd                                       ./lib/./STM32F10x_StdPeriph_Driver/src/stm32f10x_tim.o
TIM_ClearFlag                                     ./lib/./STM32F10x_StdPeriph_Driver/src/stm32f10x_tim.o
TIM_ClearITPendingBit                             ./lib/./STM32F10x_StdPeriph_Driver/src/stm32f10x_tim.o
TIM_ClearOC1Ref                                   ./lib/./STM32F10x_StdPeriph_Driver/src/stm32f10x_tim.o
TIM_ClearOC2Ref                                   ./lib/./STM32F10x_StdPeriph_Driver/src/stm32f10x_tim.o
TIM_ClearOC3Ref                                   ./lib/./STM32F10x_StdPeriph_Driver/src/stm32f10x_tim.o
TIM_ClearOC4Ref                                   ./lib/./STM32F10x_StdPeriph_Driver/src/stm32f10x_tim.o
TIM_Cmd                                           ./lib/./STM32F10x_StdPeriph_Driver/src/stm32f10x_tim.o
TIM_CounterModeConfig                             ./lib/./STM32F10x_StdPeriph_Driver/src/stm32f10x_tim.o
TIM_CtrlPWMOutputs                                ./lib/./STM32F10x_StdPeriph_Driver/src/stm32f10x_tim.o
TIM_DMACmd                                        ./lib/./STM32F10x_StdPeriph_Driver/src/stm32f10x_tim.o
TIM_DMAConfig                                     ./lib/./STM32F10x_StdPeriph_Driver/src/stm32f10x_tim.o
TIM_DeInit                                        ./lib/./STM32F10x_StdPeriph_Driver/src/stm32f10x_tim.o
TIM_ETRClockMode1Config                           ./lib/./STM32F10x_StdPeriph_Driver/src/stm32f10x_tim.o
TIM_ETRClockMode2Config                           ./lib/./STM32F10x_StdPeriph_Driver/src/stm32f10x_tim.o
TIM_ETRConfig                                     ./lib/./STM32F10x_StdPeriph_Driver/src/stm32f10x_tim.o
TIM_EncoderInterfaceConfig                        ./lib/./STM32F10x_StdPeriph_Driver/src/stm32f10x_tim.o
TIM_ForcedOC1Config                               ./lib/./STM32F10x_StdPeriph_Driver/src/stm32f10x_tim.o
TIM_ForcedOC2Config                               ./lib/./STM32F10x_StdPeriph_Driver/src/stm32f10x_tim.o
TIM_ForcedOC3Config                               ./lib/./STM32F10x_StdPeriph_Driver/src/stm32f10x_tim.o
TIM_ForcedOC4Config                               ./lib/./STM32F10x_StdPeriph_Driver/src/stm32f10x_tim.o
TIM_GenerateEvent                                 ./lib/./STM32F10x_StdPeriph_Driver/src/stm32f10x_tim.o
TIM_GetCapture1                                   ./lib/./STM32F10x_StdPeriph_Driver/src/stm32f10x_tim.o
TIM_GetCapture2                                   ./lib/./STM32F10x_StdPeriph_Driver/src/stm32f10x_tim.o
TIM_GetCapture3                                   ./lib/./STM32F10x_StdPeriph_Driver/src/stm32f10x_tim.o
TIM_GetCapture4                                   ./lib/./STM32F10x_StdPeriph_Driver/src/stm32f10x_tim.o
TIM_GetCounter                                    ./lib/./STM32F10x_StdPeriph_Driver/src/stm32f10x_tim.o
TIM_GetFlagStatus                                 ./lib/./STM32F10x_StdPeriph_Driver/src/stm32f10x_tim.o
TIM_GetITStatus                                   ./lib/./STM32F10x_StdPeriph_Driver/src/stm32f10x_tim.o
TIM_GetPrescaler                                  ./lib/./STM32F10x_StdPeriph_Driver/src/stm32f10x_tim.o
TIM_ICInit                                        ./lib/./STM32F10x_StdPeriph_Driver/src/stm32f10x_tim.o
TIM_ICStructInit                                  ./lib/./STM32F10x_StdPeriph_Driver/src/stm32f10x_tim.o
TIM_ITConfig                                      ./lib/./STM32F10x_StdPeriph_Driver/src/stm32f10x_tim.o
TIM_ITRxExternalClockConfig                       ./lib/./STM32F10x_StdPeriph_Driver/src/stm32f10x_tim.o
TIM_InternalClockConfig                           ./lib/./STM32F10x_StdPeriph_Driver/src/stm32f10x_tim.o
TIM_OC1FastConfig                                 ./lib/./STM32F10x_StdPeriph_Driver/src/stm32f10x_tim.o
TIM_OC1Init                                       ./lib/./STM32F10x_StdPeriph_Driver/src/stm32f10x_tim.o
TIM_OC1NPolarityConfig                            ./lib/./STM32F10x_StdPeriph_Driver/src/stm32f10x_tim.o
TIM_OC1PolarityConfig                             ./lib/./STM32F10x_StdPeriph_Driver/src/stm32f10x_tim.o
TIM_OC1PreloadConfig                              ./lib/./STM32F10x_StdPeriph_Driver/src/stm32f10x_tim.o
TIM_OC2FastConfig                                 ./lib/./STM32F10x_StdPeriph_Driver/src/stm32f10x_tim.o
TIM_OC2Init                                       ./lib/./STM32F10x_StdPeriph_Driver/src/stm32f10x_tim.o
TIM_OC2NPolarityConfig                            ./lib/./STM32F10x_StdPeriph_Driver/src/stm32f10x_tim.o
TIM_OC2PolarityConfig                             ./lib/./STM32F10x_StdPeriph_Driver/src/stm32f10x_tim.o
TIM_OC2PreloadConfig                              ./lib/./STM32F10x_StdPeriph_Driver/src/stm32f10x_tim.o
TIM_OC3FastConfig                                 ./lib/./STM32F10x_StdPeriph_Driver/src/stm32f10x_tim.o
TIM_OC3Init                                       ./lib/./STM32F10x_StdPeriph_Driver/src/stm32f10x_tim.o
TIM_OC3NPolarityConfig                            ./lib/./STM32F10x_StdPeriph_Driver/src/stm32f10x_tim.o
TIM_OC3PolarityConfig                             ./lib/./STM32F10x_StdPeriph_Driver/src/stm32f10x_tim.o
TIM_OC3PreloadConfig                              ./lib/./STM32F10x_StdPeriph_Driver/src/stm32f10x_tim.o
TIM_OC4FastConfig                                 ./lib/./STM32F10x_StdPeriph_Driver/src/stm32f10x_tim.o
TIM_OC4Init                                       ./lib/./STM32F10x_StdPeriph_Driver/src/stm32f10x_tim.o
TIM_OC4PolarityConfig                             ./lib/./STM32F10x_StdPeriph_Driver/src/stm32f10x_tim.o
TIM_OC4PreloadConfig                              ./lib/./STM32F10x_StdPeriph_Driver/src/stm32f10x_tim.o
TIM_OCStructInit                                  ./lib/./STM32F10x_StdPeriph_Driver/src/stm32f10x_tim.o
TIM_PWMIConfig                                    ./lib/./STM32F10x_StdPeriph_Driver/src/stm32f10x_tim.o
TIM_PrescalerConfig                               ./lib/./STM32F10x_StdPeriph_Driver/src/stm32f10x_tim.o
TIM_SelectCCDMA                                   ./lib/./STM32F10x_StdPeriph_Driver/src/stm32f10x_tim.o
TIM_SelectCOM                                     ./lib/./STM32F10x_StdPeriph_Driver/src/stm32f10x_tim.o
TIM_SelectHallSensor                              ./lib/./STM32F10x_StdPeriph_Driver/src/stm32f10x_tim.o
TIM_SelectInputTrigger                            ./lib/./STM32F10x_StdPeriph_Driver/src/stm32f10x_tim.o
TIM_SelectMasterSlaveMode                         ./lib/./STM32F10x_StdPeriph_Driver/src/stm32f10x_tim.o
TIM_SelectOCxM                                    ./lib/./STM32F10x_StdPeriph_Driver/src/stm32f10x_tim.o
TIM_SelectOnePulseMode                            ./lib/./STM32F10x_StdPeriph_Driver/src/stm32f10x_tim.o
TIM_SelectOutputTrigger                           ./lib/./STM32F10x_StdPeriph_Driver/src/stm32f10x_tim.o
TIM_SelectSlaveMode                               ./lib/./STM32F10x_StdPeriph_Driver/src/stm32f10x_tim.o
TIM_SetAutoreload                                 ./lib/./STM32F10x_StdPeriph_Driver/src/stm32f10x_tim.o
TIM_SetClockDivision                              ./lib/./STM32F10x_StdPeriph_Driver/src/stm32f10x_tim.o
TIM_SetCompare1                                   ./lib/./STM32F10x_StdPeriph_Driver/src/stm32f10x_tim.o
TIM_SetCompare2                                   ./lib/./STM32F10x_StdPeriph_Driver/src/stm32f10x_tim.o
TIM_SetCompare3                                   ./lib/./STM32F10x_StdPeriph_Driver/src/stm32f10x_tim.o
TIM_SetCompare4                                   ./lib/./STM32F10x_StdPeriph_Driver/src/stm32f10x_tim.o
TIM_SetCounter                                    ./lib/./STM32F10x_StdPeriph_Driver/src/stm32f10x_tim.o
TIM_SetIC1Prescaler                               ./lib/./STM32F10x_StdPeriph_Driver/src/stm32f10x_tim.o
TIM_SetIC2Prescaler                               ./lib/./STM32F10x_StdPeriph_Driver/src/stm32f10x_tim.o
TIM_SetIC3Prescaler                               ./lib/./STM32F10x_StdPeriph_Driver/src/stm32f10x_tim.o
TIM_SetIC4Prescaler                               ./lib/./STM32F10x_StdPeriph_Driver/src/stm32f10x_tim.o
TIM_TIxExternalClockConfig                        ./lib/./STM32F10x_StdPeriph_Driver/src/stm32f10x_tim.o
TIM_TimeBaseInit                                  ./lib/./STM32F10x_StdPeriph_Driver/src/stm32f10x_tim.o
TIM_TimeBaseStructInit                            ./lib/./STM32F10x_StdPeriph_Driver/src/stm32f10x_tim.o
TIM_UpdateDisableConfig                           ./lib/./STM32F10x_StdPeriph_Driver/src/stm32f10x_tim.o
TIM_UpdateRequestConfig                           ./lib/./STM32F10x_StdPeriph_Driver/src/stm32f10x_tim.o
Tmr_TickISR_Handler                               ./src/bsp/bsp.o
                                                  ./src/bsp/app_vect.o
ToWord                                            ./lib/./STM32_USB-FS-Device_Driver/src/usb_regs.o
ToggleDTOG_RX                                     ./lib/./STM32_USB-FS-Device_Driver/src/usb_regs.o
ToggleDTOG_TX                                     ./lib/./STM32_USB-FS-Device_Driver/src/usb_regs.o
TransferEnd                                       ./src/bsp/sdcard.o
TransferError                                     ./src/bsp/sdcard.o
USART1_BUFFER_IN                                  ./src/bsp/app_int.o
                                                  ./src/bsp/bsp_globals.o
                                                  ./src/application/app.o
USART1_CNT_IN                                     ./src/bsp/bsp_globals.o
                                                  ./src/bsp/app_int.o
                                                  ./src/application/app.o
USART1_IRQHandler                                 ./src/bsp/app_int.o
                                                  ./src/bsp/app_vect.o
USART2_IRQHandler                                 ./src/bsp/app_int.o
                                                  ./src/bsp/app_vect.o
USART3_IRQHandler                                 ./src/bsp/app_int.o
                                                  ./src/bsp/app_vect.o
USART4_IRQHandler                                 ./src/bsp/app_int.o
                                                  ./src/bsp/app_vect.o
USART5_IRQHandler                                 ./src/bsp/app_int.o
                                                  ./src/bsp/app_vect.o
USART_ClearFlag                                   ./lib/./STM32F10x_StdPeriph_Driver/src/stm32f10x_usart.o
USART_ClearITPendingBit                           ./lib/./STM32F10x_StdPeriph_Driver/src/stm32f10x_usart.o
USART_ClockInit                                   ./lib/./STM32F10x_StdPeriph_Driver/src/stm32f10x_usart.o
USART_ClockStructInit                             ./lib/./STM32F10x_StdPeriph_Driver/src/stm32f10x_usart.o
USART_Cmd                                         ./lib/./STM32F10x_StdPeriph_Driver/src/stm32f10x_usart.o
                                                  ./src/bsp/bsp.o
USART_DMACmd                                      ./lib/./STM32F10x_StdPeriph_Driver/src/stm32f10x_usart.o
USART_DeInit                                      ./lib/./STM32F10x_StdPeriph_Driver/src/stm32f10x_usart.o
USART_GetFlagStatus                               ./lib/./STM32F10x_StdPeriph_Driver/src/stm32f10x_usart.o
                                                  ./src/usb/hw_config.o
                                                  ./src/bsp/stm32f10x_syscall.o
USART_GetITStatus                                 ./lib/./STM32F10x_StdPeriph_Driver/src/stm32f10x_usart.o
                                                  ./src/bsp/app_int.o
USART_HalfDuplexCmd                               ./lib/./STM32F10x_StdPeriph_Driver/src/stm32f10x_usart.o
USART_ITConfig                                    ./lib/./STM32F10x_StdPeriph_Driver/src/stm32f10x_usart.o
                                                  ./src/bsp/bsp.o
USART_Init                                        ./lib/./STM32F10x_StdPeriph_Driver/src/stm32f10x_usart.o
                                                  ./src/bsp/bsp.o
USART_InitStructure                               ./src/usb/hw_config.o
USART_IrDACmd                                     ./lib/./STM32F10x_StdPeriph_Driver/src/stm32f10x_usart.o
USART_IrDAConfig                                  ./lib/./STM32F10x_StdPeriph_Driver/src/stm32f10x_usart.o
USART_LINBreakDetectLengthConfig                  ./lib/./STM32F10x_StdPeriph_Driver/src/stm32f10x_usart.o
USART_LINCmd                                      ./lib/./STM32F10x_StdPeriph_Driver/src/stm32f10x_usart.o
USART_ReceiveData                                 ./lib/./STM32F10x_StdPeriph_Driver/src/stm32f10x_usart.o
                                                  ./src/bsp/app_int.o
USART_ReceiverWakeUpCmd                           ./lib/./STM32F10x_StdPeriph_Driver/src/stm32f10x_usart.o
USART_SendBreak                                   ./lib/./STM32F10x_StdPeriph_Driver/src/stm32f10x_usart.o
USART_SendData                                    ./lib/./STM32F10x_StdPeriph_Driver/src/stm32f10x_usart.o
                                                  ./src/usb/hw_config.o
                                                  ./src/bsp/stm32f10x_syscall.o
USART_SetAddress                                  ./lib/./STM32F10x_StdPeriph_Driver/src/stm32f10x_usart.o
USART_SetGuardTime                                ./lib/./STM32F10x_StdPeriph_Driver/src/stm32f10x_usart.o
USART_SetPrescaler                                ./lib/./STM32F10x_StdPeriph_Driver/src/stm32f10x_usart.o
USART_SmartCardCmd                                ./lib/./STM32F10x_StdPeriph_Driver/src/stm32f10x_usart.o
USART_SmartCardNACKCmd                            ./lib/./STM32F10x_StdPeriph_Driver/src/stm32f10x_usart.o
USART_StructInit                                  ./lib/./STM32F10x_StdPeriph_Driver/src/stm32f10x_usart.o
USART_To_USB_Send_Data                            ./src/usb/hw_config.o
                                                  ./src/bsp/app_int.o
USART_WakeUpConfig                                ./lib/./STM32F10x_StdPeriph_Driver/src/stm32f10x_usart.o
USBWakeUp_IRQHandler                              ./src/bsp/app_int.o
                                                  ./src/bsp/app_vect.o
USB_Cable_Config                                  ./src/usb/hw_config.o
                                                  ./src/usb/usb_pwr.o
USB_HP_CAN_TX_IRQHandler                          ./src/bsp/app_int.o
                                                  ./src/bsp/app_vect.o
USB_Init                                          ./lib/./STM32_USB-FS-Device_Driver/src/usb_init.o
                                                  ./src/bsp/bsp.o
USB_Interrupts_Config                             ./src/usb/hw_config.o
                                                  ./src/bsp/bsp.o
USB_Istr                                          ./src/usb/usb_istr.o
                                                  ./src/bsp/app_int.o
USB_LP_CAN_RX0_IRQHandler                         ./src/bsp/app_int.o
                                                  ./src/bsp/app_vect.o
USB_SIL_Init                                      ./lib/./STM32_USB-FS-Device_Driver/src/usb_sil.o
                                                  ./src/usb/usb_prop.o
USB_SIL_Read                                      ./lib/./STM32_USB-FS-Device_Driver/src/usb_sil.o
                                                  ./src/usb/usb_endp.o
USB_SIL_Write                                     ./lib/./STM32_USB-FS-Device_Driver/src/usb_sil.o
                                                  ./src/usb/hw_config.o
USB_To_USART_Send_Data                            ./src/usb/hw_config.o
UsageFaultException                               ./src/bsp/app_int.o
                                                  ./src/bsp/app_vect.o
UserToPMABufferCopy                               ./lib/./STM32_USB-FS-Device_Driver/src/usb_mem.o
                                                  ./lib/./STM32_USB-FS-Device_Driver/src/usb_sil.o
                                                  ./lib/./STM32_USB-FS-Device_Driver/src/usb_core.o
User_Standard_Requests                            ./src/usb/usb_prop.o
                                                  ./lib/./STM32_USB-FS-Device_Driver/src/usb_init.o
Virtual_Com_Port_ConfigDescriptor                 ./src/usb/usb_desc.o
                                                  ./src/usb/usb_prop.o
Virtual_Com_Port_Data_Setup                       ./src/usb/usb_prop.o
Virtual_Com_Port_DeviceDescriptor                 ./src/usb/usb_desc.o
                                                  ./src/usb/usb_prop.o
Virtual_Com_Port_GetConfigDescriptor              ./src/usb/usb_prop.o
Virtual_Com_Port_GetDeviceDescriptor              ./src/usb/usb_prop.o
Virtual_Com_Port_GetLineCoding                    ./src/usb/usb_prop.o
Virtual_Com_Port_GetStringDescriptor              ./src/usb/usb_prop.o
Virtual_Com_Port_Get_Interface_Setting            ./src/usb/usb_prop.o
Virtual_Com_Port_NoData_Setup                     ./src/usb/usb_prop.o
Virtual_Com_Port_Reset                            ./src/usb/usb_prop.o
Virtual_Com_Port_SetConfiguration                 ./src/usb/usb_prop.o
Virtual_Com_Port_SetDeviceAddress                 ./src/usb/usb_prop.o
Virtual_Com_Port_SetLineCoding                    ./src/usb/usb_prop.o
Virtual_Com_Port_Status_In                        ./src/usb/usb_prop.o
Virtual_Com_Port_Status_Out                       ./src/usb/usb_prop.o
Virtual_Com_Port_StringLangID                     ./src/usb/usb_desc.o
                                                  ./src/usb/usb_prop.o
Virtual_Com_Port_StringProduct                    ./src/usb/usb_desc.o
                                                  ./src/usb/usb_prop.o
Virtual_Com_Port_StringSerial                     ./src/usb/usb_desc.o
                                                  ./src/usb/hw_config.o
                                                  ./src/usb/usb_prop.o
Virtual_Com_Port_StringVendor                     ./src/usb/usb_desc.o
                                                  ./src/usb/usb_prop.o
Virtual_Com_Port_init                             ./src/usb/usb_prop.o
WWDG_IRQHandler                                   ./src/bsp/app_int.o
                                                  ./src/bsp/app_vect.o
_Balloc                                           c:/apps/yagarto/bin/../lib/gcc/arm-elf/4.4.2/../../../../arm-elf/lib/thumb/thumb2\libc.a(lib_a-mprec.o)
                                                  c:/apps/yagarto/bin/../lib/gcc/arm-elf/4.4.2/../../../../arm-elf/lib/thumb/thumb2\libc.a(lib_a-dtoa.o)
_Bfree                                            c:/apps/yagarto/bin/../lib/gcc/arm-elf/4.4.2/../../../../arm-elf/lib/thumb/thumb2\libc.a(lib_a-mprec.o)
                                                  c:/apps/yagarto/bin/../lib/gcc/arm-elf/4.4.2/../../../../arm-elf/lib/thumb/thumb2\libc.a(lib_a-dtoa.o)
_DUMMIE_close                                     ./src/bsp/stm32f10x_syscall.o
_DUMMIE_open                                      ./src/bsp/stm32f10x_syscall.o
_DUMMIE_read                                      ./src/bsp/stm32f10x_syscall.o
_DUMMIE_write                                     ./src/bsp/stm32f10x_syscall.o
_PathLocale                                       c:/apps/yagarto/bin/../lib/gcc/arm-elf/4.4.2/../../../../arm-elf/lib/thumb/thumb2\libc.a(lib_a-locale.o)
_USART1_close                                     ./src/bsp/stm32f10x_syscall.o
_USART1_open                                      ./src/bsp/stm32f10x_syscall.o
_USART1_read                                      ./src/bsp/stm32f10x_syscall.o
_USART1_write                                     ./src/bsp/stm32f10x_syscall.o
_USART3_close                                     ./src/bsp/stm32f10x_syscall.o
_USART3_open                                      ./src/bsp/stm32f10x_syscall.o
_USART3_read                                      ./src/bsp/stm32f10x_syscall.o
_USART3_write                                     ./src/bsp/stm32f10x_syscall.o
__adddf3                                          c:/apps/yagarto/bin/../lib/gcc/arm-elf/4.4.2/thumb/thumb2\libgcc.a(_arm_addsubdf3.o)
                                                  c:/apps/yagarto/bin/../lib/gcc/arm-elf/4.4.2/../../../../arm-elf/lib/thumb/thumb2\libc.a(lib_a-dtoa.o)
__aeabi_cdcmpeq                                   c:/apps/yagarto/bin/../lib/gcc/arm-elf/4.4.2/thumb/thumb2\libgcc.a(_arm_cmpdf2.o)
__aeabi_cdcmple                                   c:/apps/yagarto/bin/../lib/gcc/arm-elf/4.4.2/thumb/thumb2\libgcc.a(_arm_cmpdf2.o)
__aeabi_cdrcmple                                  c:/apps/yagarto/bin/../lib/gcc/arm-elf/4.4.2/thumb/thumb2\libgcc.a(_arm_cmpdf2.o)
__aeabi_d2iz                                      c:/apps/yagarto/bin/../lib/gcc/arm-elf/4.4.2/thumb/thumb2\libgcc.a(_arm_fixdfsi.o)
__aeabi_dadd                                      c:/apps/yagarto/bin/../lib/gcc/arm-elf/4.4.2/thumb/thumb2\libgcc.a(_arm_addsubdf3.o)
__aeabi_dcmpeq                                    c:/apps/yagarto/bin/../lib/gcc/arm-elf/4.4.2/thumb/thumb2\libgcc.a(_arm_cmpdf2.o)
__aeabi_dcmpge                                    c:/apps/yagarto/bin/../lib/gcc/arm-elf/4.4.2/thumb/thumb2\libgcc.a(_arm_cmpdf2.o)
__aeabi_dcmpgt                                    c:/apps/yagarto/bin/../lib/gcc/arm-elf/4.4.2/thumb/thumb2\libgcc.a(_arm_cmpdf2.o)
__aeabi_dcmple                                    c:/apps/yagarto/bin/../lib/gcc/arm-elf/4.4.2/thumb/thumb2\libgcc.a(_arm_cmpdf2.o)
__aeabi_dcmplt                                    c:/apps/yagarto/bin/../lib/gcc/arm-elf/4.4.2/thumb/thumb2\libgcc.a(_arm_cmpdf2.o)
__aeabi_ddiv                                      c:/apps/yagarto/bin/../lib/gcc/arm-elf/4.4.2/thumb/thumb2\libgcc.a(_arm_muldivdf3.o)
__aeabi_dmul                                      c:/apps/yagarto/bin/../lib/gcc/arm-elf/4.4.2/thumb/thumb2\libgcc.a(_arm_muldivdf3.o)
__aeabi_drsub                                     c:/apps/yagarto/bin/../lib/gcc/arm-elf/4.4.2/thumb/thumb2\libgcc.a(_arm_addsubdf3.o)
__aeabi_dsub                                      c:/apps/yagarto/bin/../lib/gcc/arm-elf/4.4.2/thumb/thumb2\libgcc.a(_arm_addsubdf3.o)
__aeabi_f2d                                       c:/apps/yagarto/bin/../lib/gcc/arm-elf/4.4.2/thumb/thumb2\libgcc.a(_arm_addsubdf3.o)
__aeabi_i2d                                       c:/apps/yagarto/bin/../lib/gcc/arm-elf/4.4.2/thumb/thumb2\libgcc.a(_arm_addsubdf3.o)
__aeabi_idiv0                                     c:/apps/yagarto/bin/../lib/gcc/arm-elf/4.4.2/thumb/thumb2\libgcc.a(_dvmd_tls.o)
__aeabi_l2d                                       c:/apps/yagarto/bin/../lib/gcc/arm-elf/4.4.2/thumb/thumb2\libgcc.a(_arm_addsubdf3.o)
__aeabi_ldiv0                                     c:/apps/yagarto/bin/../lib/gcc/arm-elf/4.4.2/thumb/thumb2\libgcc.a(_dvmd_tls.o)
__aeabi_ui2d                                      c:/apps/yagarto/bin/../lib/gcc/arm-elf/4.4.2/thumb/thumb2\libgcc.a(_arm_addsubdf3.o)
__aeabi_uidiv                                     c:/apps/yagarto/bin/../lib/gcc/arm-elf/4.4.2/thumb/thumb2\libgcc.a(_udivsi3.o)
__aeabi_uidivmod                                  c:/apps/yagarto/bin/../lib/gcc/arm-elf/4.4.2/thumb/thumb2\libgcc.a(_udivsi3.o)
__aeabi_ul2d                                      c:/apps/yagarto/bin/../lib/gcc/arm-elf/4.4.2/thumb/thumb2\libgcc.a(_arm_addsubdf3.o)
__any_on                                          c:/apps/yagarto/bin/../lib/gcc/arm-elf/4.4.2/../../../../arm-elf/lib/thumb/thumb2\libc.a(lib_a-mprec.o)
__b2d                                             c:/apps/yagarto/bin/../lib/gcc/arm-elf/4.4.2/../../../../arm-elf/lib/thumb/thumb2\libc.a(lib_a-mprec.o)
__cmpdf2                                          c:/apps/yagarto/bin/../lib/gcc/arm-elf/4.4.2/thumb/thumb2\libgcc.a(_arm_cmpdf2.o)
__copybits                                        c:/apps/yagarto/bin/../lib/gcc/arm-elf/4.4.2/../../../../arm-elf/lib/thumb/thumb2\libc.a(lib_a-mprec.o)
__d2b                                             c:/apps/yagarto/bin/../lib/gcc/arm-elf/4.4.2/../../../../arm-elf/lib/thumb/thumb2\libc.a(lib_a-mprec.o)
                                                  c:/apps/yagarto/bin/../lib/gcc/arm-elf/4.4.2/../../../../arm-elf/lib/thumb/thumb2\libc.a(lib_a-dtoa.o)
__div0                                            c:/apps/yagarto/bin/../lib/gcc/arm-elf/4.4.2/thumb/thumb2\libgcc.a(_dvmd_tls.o)
                                                  c:/apps/yagarto/bin/../lib/gcc/arm-elf/4.4.2/thumb/thumb2\libgcc.a(_udivsi3.o)
__divdf3                                          c:/apps/yagarto/bin/../lib/gcc/arm-elf/4.4.2/thumb/thumb2\libgcc.a(_arm_muldivdf3.o)
                                                  c:/apps/yagarto/bin/../lib/gcc/arm-elf/4.4.2/../../../../arm-elf/lib/thumb/thumb2\libc.a(lib_a-mprec.o)
                                                  c:/apps/yagarto/bin/../lib/gcc/arm-elf/4.4.2/../../../../arm-elf/lib/thumb/thumb2\libc.a(lib_a-dtoa.o)
__eqdf2                                           c:/apps/yagarto/bin/../lib/gcc/arm-elf/4.4.2/thumb/thumb2\libgcc.a(_arm_cmpdf2.o)
                                                  c:/apps/yagarto/bin/../lib/gcc/arm-elf/4.4.2/../../../../arm-elf/lib/thumb/thumb2\libc.a(lib_a-dtoa.o)
                                                  c:/apps/yagarto/bin/../lib/gcc/arm-elf/4.4.2/../../../../arm-elf/lib/thumb/thumb2\libc.a(lib_a-vfprintf.o)
__extendsfdf2                                     c:/apps/yagarto/bin/../lib/gcc/arm-elf/4.4.2/thumb/thumb2\libgcc.a(_arm_addsubdf3.o)
__fixdfsi                                         c:/apps/yagarto/bin/../lib/gcc/arm-elf/4.4.2/thumb/thumb2\libgcc.a(_arm_fixdfsi.o)
                                                  c:/apps/yagarto/bin/../lib/gcc/arm-elf/4.4.2/../../../../arm-elf/lib/thumb/thumb2\libc.a(lib_a-dtoa.o)
__floatdidf                                       c:/apps/yagarto/bin/../lib/gcc/arm-elf/4.4.2/thumb/thumb2\libgcc.a(_arm_addsubdf3.o)
__floatsidf                                       c:/apps/yagarto/bin/../lib/gcc/arm-elf/4.4.2/thumb/thumb2\libgcc.a(_arm_addsubdf3.o)
                                                  c:/apps/yagarto/bin/../lib/gcc/arm-elf/4.4.2/../../../../arm-elf/lib/thumb/thumb2\libc.a(lib_a-dtoa.o)
__floatundidf                                     c:/apps/yagarto/bin/../lib/gcc/arm-elf/4.4.2/thumb/thumb2\libgcc.a(_arm_addsubdf3.o)
__floatunsidf                                     c:/apps/yagarto/bin/../lib/gcc/arm-elf/4.4.2/thumb/thumb2\libgcc.a(_arm_addsubdf3.o)
                                                  c:/apps/yagarto/bin/../lib/gcc/arm-elf/4.4.2/../../../../arm-elf/lib/thumb/thumb2\libc.a(lib_a-dtoa.o)
__fp_lock_all                                     c:/apps/yagarto/bin/../lib/gcc/arm-elf/4.4.2/../../../../arm-elf/lib/thumb/thumb2\libc.a(lib_a-findfp.o)
__fp_unlock_all                                   c:/apps/yagarto/bin/../lib/gcc/arm-elf/4.4.2/../../../../arm-elf/lib/thumb/thumb2\libc.a(lib_a-findfp.o)
__gedf2                                           c:/apps/yagarto/bin/../lib/gcc/arm-elf/4.4.2/thumb/thumb2\libgcc.a(_arm_cmpdf2.o)
                                                  c:/apps/yagarto/bin/../lib/gcc/arm-elf/4.4.2/../../../../arm-elf/lib/thumb/thumb2\libc.a(lib_a-dtoa.o)
__gtdf2                                           c:/apps/yagarto/bin/../lib/gcc/arm-elf/4.4.2/thumb/thumb2\libgcc.a(_arm_cmpdf2.o)
                                                  c:/apps/yagarto/bin/../lib/gcc/arm-elf/4.4.2/../../../../arm-elf/lib/thumb/thumb2\libc.a(lib_a-dtoa.o)
__hi0bits                                         c:/apps/yagarto/bin/../lib/gcc/arm-elf/4.4.2/../../../../arm-elf/lib/thumb/thumb2\libc.a(lib_a-mprec.o)
                                                  c:/apps/yagarto/bin/../lib/gcc/arm-elf/4.4.2/../../../../arm-elf/lib/thumb/thumb2\libc.a(lib_a-dtoa.o)
__i2b                                             c:/apps/yagarto/bin/../lib/gcc/arm-elf/4.4.2/../../../../arm-elf/lib/thumb/thumb2\libc.a(lib_a-mprec.o)
                                                  c:/apps/yagarto/bin/../lib/gcc/arm-elf/4.4.2/../../../../arm-elf/lib/thumb/thumb2\libc.a(lib_a-dtoa.o)
__isinfd                                          c:/apps/yagarto/bin/../lib/gcc/arm-elf/4.4.2/../../../../arm-elf/lib/thumb/thumb2\libc.a(lib_a-s_isinfd.o)
                                                  c:/apps/yagarto/bin/../lib/gcc/arm-elf/4.4.2/../../../../arm-elf/lib/thumb/thumb2\libc.a(lib_a-vfprintf.o)
__isnand                                          c:/apps/yagarto/bin/../lib/gcc/arm-elf/4.4.2/../../../../arm-elf/lib/thumb/thumb2\libc.a(lib_a-s_isnand.o)
                                                  c:/apps/yagarto/bin/../lib/gcc/arm-elf/4.4.2/../../../../arm-elf/lib/thumb/thumb2\libc.a(lib_a-vfprintf.o)
__lc_ctype                                        c:/apps/yagarto/bin/../lib/gcc/arm-elf/4.4.2/../../../../arm-elf/lib/thumb/thumb2\libc.a(lib_a-locale.o)
__ledf2                                           c:/apps/yagarto/bin/../lib/gcc/arm-elf/4.4.2/thumb/thumb2\libgcc.a(_arm_cmpdf2.o)
__lo0bits                                         c:/apps/yagarto/bin/../lib/gcc/arm-elf/4.4.2/../../../../arm-elf/lib/thumb/thumb2\libc.a(lib_a-mprec.o)
__locale_charset                                  c:/apps/yagarto/bin/../lib/gcc/arm-elf/4.4.2/../../../../arm-elf/lib/thumb/thumb2\libc.a(lib_a-locale.o)
__lshift                                          c:/apps/yagarto/bin/../lib/gcc/arm-elf/4.4.2/../../../../arm-elf/lib/thumb/thumb2\libc.a(lib_a-mprec.o)
                                                  c:/apps/yagarto/bin/../lib/gcc/arm-elf/4.4.2/../../../../arm-elf/lib/thumb/thumb2\libc.a(lib_a-dtoa.o)
__ltdf2                                           c:/apps/yagarto/bin/../lib/gcc/arm-elf/4.4.2/thumb/thumb2\libgcc.a(_arm_cmpdf2.o)
                                                  c:/apps/yagarto/bin/../lib/gcc/arm-elf/4.4.2/../../../../arm-elf/lib/thumb/thumb2\libc.a(lib_a-dtoa.o)
                                                  c:/apps/yagarto/bin/../lib/gcc/arm-elf/4.4.2/../../../../arm-elf/lib/thumb/thumb2\libc.a(lib_a-vfprintf.o)
__malloc_av_                                      c:/apps/yagarto/bin/../lib/gcc/arm-elf/4.4.2/../../../../arm-elf/lib/thumb/thumb2\libc.a(lib_a-mallocr.o)
                                                  c:/apps/yagarto/bin/../lib/gcc/arm-elf/4.4.2/../../../../arm-elf/lib/thumb/thumb2\libc.a(lib_a-reallocr.o)
                                                  c:/apps/yagarto/bin/../lib/gcc/arm-elf/4.4.2/../../../../arm-elf/lib/thumb/thumb2\libc.a(lib_a-freer.o)
__malloc_current_mallinfo                         c:/apps/yagarto/bin/../lib/gcc/arm-elf/4.4.2/../../../../arm-elf/lib/thumb/thumb2\libc.a(lib_a-mallocr.o)
                                                  c:/apps/yagarto/bin/../lib/gcc/arm-elf/4.4.2/../../../../arm-elf/lib/thumb/thumb2\libc.a(lib_a-freer.o)
__malloc_lock                                     c:/apps/yagarto/bin/../lib/gcc/arm-elf/4.4.2/../../../../arm-elf/lib/thumb/thumb2\libc.a(lib_a-mlock.o)
                                                  c:/apps/yagarto/bin/../lib/gcc/arm-elf/4.4.2/../../../../arm-elf/lib/thumb/thumb2\libc.a(lib_a-reallocr.o)
                                                  c:/apps/yagarto/bin/../lib/gcc/arm-elf/4.4.2/../../../../arm-elf/lib/thumb/thumb2\libc.a(lib_a-freer.o)
                                                  c:/apps/yagarto/bin/../lib/gcc/arm-elf/4.4.2/../../../../arm-elf/lib/thumb/thumb2\libc.a(lib_a-mallocr.o)
__malloc_max_sbrked_mem                           c:/apps/yagarto/bin/../lib/gcc/arm-elf/4.4.2/../../../../arm-elf/lib/thumb/thumb2\libc.a(lib_a-mallocr.o)
__malloc_max_total_mem                            c:/apps/yagarto/bin/../lib/gcc/arm-elf/4.4.2/../../../../arm-elf/lib/thumb/thumb2\libc.a(lib_a-mallocr.o)
__malloc_sbrk_base                                c:/apps/yagarto/bin/../lib/gcc/arm-elf/4.4.2/../../../../arm-elf/lib/thumb/thumb2\libc.a(lib_a-mallocr.o)
                                                  c:/apps/yagarto/bin/../lib/gcc/arm-elf/4.4.2/../../../../arm-elf/lib/thumb/thumb2\libc.a(lib_a-freer.o)
__malloc_top_pad                                  c:/apps/yagarto/bin/../lib/gcc/arm-elf/4.4.2/../../../../arm-elf/lib/thumb/thumb2\libc.a(lib_a-mallocr.o)
                                                  c:/apps/yagarto/bin/../lib/gcc/arm-elf/4.4.2/../../../../arm-elf/lib/thumb/thumb2\libc.a(lib_a-freer.o)
__malloc_trim_threshold                           c:/apps/yagarto/bin/../lib/gcc/arm-elf/4.4.2/../../../../arm-elf/lib/thumb/thumb2\libc.a(lib_a-mallocr.o)
                                                  c:/apps/yagarto/bin/../lib/gcc/arm-elf/4.4.2/../../../../arm-elf/lib/thumb/thumb2\libc.a(lib_a-freer.o)
__malloc_unlock                                   c:/apps/yagarto/bin/../lib/gcc/arm-elf/4.4.2/../../../../arm-elf/lib/thumb/thumb2\libc.a(lib_a-mlock.o)
                                                  c:/apps/yagarto/bin/../lib/gcc/arm-elf/4.4.2/../../../../arm-elf/lib/thumb/thumb2\libc.a(lib_a-reallocr.o)
                                                  c:/apps/yagarto/bin/../lib/gcc/arm-elf/4.4.2/../../../../arm-elf/lib/thumb/thumb2\libc.a(lib_a-freer.o)
                                                  c:/apps/yagarto/bin/../lib/gcc/arm-elf/4.4.2/../../../../arm-elf/lib/thumb/thumb2\libc.a(lib_a-mallocr.o)
__mb_cur_max                                      c:/apps/yagarto/bin/../lib/gcc/arm-elf/4.4.2/../../../../arm-elf/lib/thumb/thumb2\libc.a(lib_a-locale.o)
__mcmp                                            c:/apps/yagarto/bin/../lib/gcc/arm-elf/4.4.2/../../../../arm-elf/lib/thumb/thumb2\libc.a(lib_a-mprec.o)
                                                  c:/apps/yagarto/bin/../lib/gcc/arm-elf/4.4.2/../../../../arm-elf/lib/thumb/thumb2\libc.a(lib_a-dtoa.o)
__mdiff                                           c:/apps/yagarto/bin/../lib/gcc/arm-elf/4.4.2/../../../../arm-elf/lib/thumb/thumb2\libc.a(lib_a-mprec.o)
                                                  c:/apps/yagarto/bin/../lib/gcc/arm-elf/4.4.2/../../../../arm-elf/lib/thumb/thumb2\libc.a(lib_a-dtoa.o)
__mlocale_changed                                 c:/apps/yagarto/bin/../lib/gcc/arm-elf/4.4.2/../../../../arm-elf/lib/thumb/thumb2\libc.a(lib_a-locale.o)
__mprec_bigtens                                   c:/apps/yagarto/bin/../lib/gcc/arm-elf/4.4.2/../../../../arm-elf/lib/thumb/thumb2\libc.a(lib_a-mprec.o)
                                                  c:/apps/yagarto/bin/../lib/gcc/arm-elf/4.4.2/../../../../arm-elf/lib/thumb/thumb2\libc.a(lib_a-dtoa.o)
__mprec_tens                                      c:/apps/yagarto/bin/../lib/gcc/arm-elf/4.4.2/../../../../arm-elf/lib/thumb/thumb2\libc.a(lib_a-mprec.o)
                                                  c:/apps/yagarto/bin/../lib/gcc/arm-elf/4.4.2/../../../../arm-elf/lib/thumb/thumb2\libc.a(lib_a-dtoa.o)
__mprec_tinytens                                  c:/apps/yagarto/bin/../lib/gcc/arm-elf/4.4.2/../../../../arm-elf/lib/thumb/thumb2\libc.a(lib_a-mprec.o)
__muldf3                                          c:/apps/yagarto/bin/../lib/gcc/arm-elf/4.4.2/thumb/thumb2\libgcc.a(_arm_muldivdf3.o)
                                                  c:/apps/yagarto/bin/../lib/gcc/arm-elf/4.4.2/../../../../arm-elf/lib/thumb/thumb2\libc.a(lib_a-mprec.o)
                                                  c:/apps/yagarto/bin/../lib/gcc/arm-elf/4.4.2/../../../../arm-elf/lib/thumb/thumb2\libc.a(lib_a-dtoa.o)
__multadd                                         c:/apps/yagarto/bin/../lib/gcc/arm-elf/4.4.2/../../../../arm-elf/lib/thumb/thumb2\libc.a(lib_a-mprec.o)
                                                  c:/apps/yagarto/bin/../lib/gcc/arm-elf/4.4.2/../../../../arm-elf/lib/thumb/thumb2\libc.a(lib_a-dtoa.o)
__multiply                                        c:/apps/yagarto/bin/../lib/gcc/arm-elf/4.4.2/../../../../arm-elf/lib/thumb/thumb2\libc.a(lib_a-mprec.o)
                                                  c:/apps/yagarto/bin/../lib/gcc/arm-elf/4.4.2/../../../../arm-elf/lib/thumb/thumb2\libc.a(lib_a-dtoa.o)
__nedf2                                           c:/apps/yagarto/bin/../lib/gcc/arm-elf/4.4.2/thumb/thumb2\libgcc.a(_arm_cmpdf2.o)
                                                  c:/apps/yagarto/bin/../lib/gcc/arm-elf/4.4.2/../../../../arm-elf/lib/thumb/thumb2\libc.a(lib_a-dtoa.o)
                                                  c:/apps/yagarto/bin/../lib/gcc/arm-elf/4.4.2/../../../../arm-elf/lib/thumb/thumb2\libc.a(lib_a-vfprintf.o)
__nlocale_changed                                 c:/apps/yagarto/bin/../lib/gcc/arm-elf/4.4.2/../../../../arm-elf/lib/thumb/thumb2\libc.a(lib_a-locale.o)
__pow5mult                                        c:/apps/yagarto/bin/../lib/gcc/arm-elf/4.4.2/../../../../arm-elf/lib/thumb/thumb2\libc.a(lib_a-mprec.o)
                                                  c:/apps/yagarto/bin/../lib/gcc/arm-elf/4.4.2/../../../../arm-elf/lib/thumb/thumb2\libc.a(lib_a-dtoa.o)
__ratio                                           c:/apps/yagarto/bin/../lib/gcc/arm-elf/4.4.2/../../../../arm-elf/lib/thumb/thumb2\libc.a(lib_a-mprec.o)
__s2b                                             c:/apps/yagarto/bin/../lib/gcc/arm-elf/4.4.2/../../../../arm-elf/lib/thumb/thumb2\libc.a(lib_a-mprec.o)
__sclose                                          c:/apps/yagarto/bin/../lib/gcc/arm-elf/4.4.2/../../../../arm-elf/lib/thumb/thumb2\libc.a(lib_a-stdio.o)
                                                  c:/apps/yagarto/bin/../lib/gcc/arm-elf/4.4.2/../../../../arm-elf/lib/thumb/thumb2\libc.a(lib_a-findfp.o)
                                                  c:/apps/yagarto/bin/../lib/gcc/arm-elf/4.4.2/../../../../arm-elf/lib/thumb/thumb2\libc.a(lib_a-fopen.o)
__sf_fake_stderr                                  c:/apps/yagarto/bin/../lib/gcc/arm-elf/4.4.2/../../../../arm-elf/lib/thumb/thumb2\libc.a(lib_a-findfp.o)
                                                  c:/apps/yagarto/bin/../lib/gcc/arm-elf/4.4.2/../../../../arm-elf/lib/thumb/thumb2\libc.a(lib_a-fclose.o)
                                                  c:/apps/yagarto/bin/../lib/gcc/arm-elf/4.4.2/../../../../arm-elf/lib/thumb/thumb2\libc.a(lib_a-fflush.o)
                                                  c:/apps/yagarto/bin/../lib/gcc/arm-elf/4.4.2/../../../../arm-elf/lib/thumb/thumb2\libc.a(lib_a-wsetup.o)
                                                  c:/apps/yagarto/bin/../lib/gcc/arm-elf/4.4.2/../../../../arm-elf/lib/thumb/thumb2\libc.a(lib_a-vfprintf.o)
                                                  c:/apps/yagarto/bin/../lib/gcc/arm-elf/4.4.2/../../../../arm-elf/lib/thumb/thumb2\libc.a(lib_a-refill.o)
                                                  c:/apps/yagarto/bin/../lib/gcc/arm-elf/4.4.2/../../../../arm-elf/lib/thumb/thumb2\libc.a(lib_a-impure.o)
                                                  c:/apps/yagarto/bin/../lib/gcc/arm-elf/4.4.2/../../../../arm-elf/lib/thumb/thumb2\libc.a(lib_a-fwrite.o)
                                                  c:/apps/yagarto/bin/../lib/gcc/arm-elf/4.4.2/../../../../arm-elf/lib/thumb/thumb2\libc.a(lib_a-fseek.o)
__sf_fake_stdin                                   c:/apps/yagarto/bin/../lib/gcc/arm-elf/4.4.2/../../../../arm-elf/lib/thumb/thumb2\libc.a(lib_a-findfp.o)
                                                  c:/apps/yagarto/bin/../lib/gcc/arm-elf/4.4.2/../../../../arm-elf/lib/thumb/thumb2\libc.a(lib_a-fclose.o)
                                                  c:/apps/yagarto/bin/../lib/gcc/arm-elf/4.4.2/../../../../arm-elf/lib/thumb/thumb2\libc.a(lib_a-fflush.o)
                                                  c:/apps/yagarto/bin/../lib/gcc/arm-elf/4.4.2/../../../../arm-elf/lib/thumb/thumb2\libc.a(lib_a-wsetup.o)
                                                  c:/apps/yagarto/bin/../lib/gcc/arm-elf/4.4.2/../../../../arm-elf/lib/thumb/thumb2\libc.a(lib_a-vfprintf.o)
                                                  c:/apps/yagarto/bin/../lib/gcc/arm-elf/4.4.2/../../../../arm-elf/lib/thumb/thumb2\libc.a(lib_a-refill.o)
                                                  c:/apps/yagarto/bin/../lib/gcc/arm-elf/4.4.2/../../../../arm-elf/lib/thumb/thumb2\libc.a(lib_a-impure.o)
                                                  c:/apps/yagarto/bin/../lib/gcc/arm-elf/4.4.2/../../../../arm-elf/lib/thumb/thumb2\libc.a(lib_a-fwrite.o)
                                                  c:/apps/yagarto/bin/../lib/gcc/arm-elf/4.4.2/../../../../arm-elf/lib/thumb/thumb2\libc.a(lib_a-fseek.o)
__sf_fake_stdout                                  c:/apps/yagarto/bin/../lib/gcc/arm-elf/4.4.2/../../../../arm-elf/lib/thumb/thumb2\libc.a(lib_a-findfp.o)
                                                  c:/apps/yagarto/bin/../lib/gcc/arm-elf/4.4.2/../../../../arm-elf/lib/thumb/thumb2\libc.a(lib_a-fclose.o)
                                                  c:/apps/yagarto/bin/../lib/gcc/arm-elf/4.4.2/../../../../arm-elf/lib/thumb/thumb2\libc.a(lib_a-fflush.o)
                                                  c:/apps/yagarto/bin/../lib/gcc/arm-elf/4.4.2/../../../../arm-elf/lib/thumb/thumb2\libc.a(lib_a-wsetup.o)
                                                  c:/apps/yagarto/bin/../lib/gcc/arm-elf/4.4.2/../../../../arm-elf/lib/thumb/thumb2\libc.a(lib_a-vfprintf.o)
                                                  c:/apps/yagarto/bin/../lib/gcc/arm-elf/4.4.2/../../../../arm-elf/lib/thumb/thumb2\libc.a(lib_a-refill.o)
                                                  c:/apps/yagarto/bin/../lib/gcc/arm-elf/4.4.2/../../../../arm-elf/lib/thumb/thumb2\libc.a(lib_a-impure.o)
                                                  c:/apps/yagarto/bin/../lib/gcc/arm-elf/4.4.2/../../../../arm-elf/lib/thumb/thumb2\libc.a(lib_a-fwrite.o)
                                                  c:/apps/yagarto/bin/../lib/gcc/arm-elf/4.4.2/../../../../arm-elf/lib/thumb/thumb2\libc.a(lib_a-fseek.o)
__sflags                                          c:/apps/yagarto/bin/../lib/gcc/arm-elf/4.4.2/../../../../arm-elf/lib/thumb/thumb2\libc.a(lib_a-flags.o)
                                                  c:/apps/yagarto/bin/../lib/gcc/arm-elf/4.4.2/../../../../arm-elf/lib/thumb/thumb2\libc.a(lib_a-fopen.o)
__sfmoreglue                                      c:/apps/yagarto/bin/../lib/gcc/arm-elf/4.4.2/../../../../arm-elf/lib/thumb/thumb2\libc.a(lib_a-findfp.o)
__sfp                                             c:/apps/yagarto/bin/../lib/gcc/arm-elf/4.4.2/../../../../arm-elf/lib/thumb/thumb2\libc.a(lib_a-findfp.o)
                                                  c:/apps/yagarto/bin/../lib/gcc/arm-elf/4.4.2/../../../../arm-elf/lib/thumb/thumb2\libc.a(lib_a-fopen.o)
__sfp_lock_acquire                                c:/apps/yagarto/bin/../lib/gcc/arm-elf/4.4.2/../../../../arm-elf/lib/thumb/thumb2\libc.a(lib_a-findfp.o)
                                                  c:/apps/yagarto/bin/../lib/gcc/arm-elf/4.4.2/../../../../arm-elf/lib/thumb/thumb2\libc.a(lib_a-fclose.o)
                                                  c:/apps/yagarto/bin/../lib/gcc/arm-elf/4.4.2/../../../../arm-elf/lib/thumb/thumb2\libc.a(lib_a-fwalk.o)
                                                  c:/apps/yagarto/bin/../lib/gcc/arm-elf/4.4.2/../../../../arm-elf/lib/thumb/thumb2\libc.a(lib_a-fopen.o)
__sfp_lock_release                                c:/apps/yagarto/bin/../lib/gcc/arm-elf/4.4.2/../../../../arm-elf/lib/thumb/thumb2\libc.a(lib_a-findfp.o)
                                                  c:/apps/yagarto/bin/../lib/gcc/arm-elf/4.4.2/../../../../arm-elf/lib/thumb/thumb2\libc.a(lib_a-fclose.o)
                                                  c:/apps/yagarto/bin/../lib/gcc/arm-elf/4.4.2/../../../../arm-elf/lib/thumb/thumb2\libc.a(lib_a-fwalk.o)
                                                  c:/apps/yagarto/bin/../lib/gcc/arm-elf/4.4.2/../../../../arm-elf/lib/thumb/thumb2\libc.a(lib_a-fopen.o)
__sfvwrite_r                                      c:/apps/yagarto/bin/../lib/gcc/arm-elf/4.4.2/../../../../arm-elf/lib/thumb/thumb2\libc.a(lib_a-fvwrite.o)
                                                  c:/apps/yagarto/bin/../lib/gcc/arm-elf/4.4.2/../../../../arm-elf/lib/thumb/thumb2\libc.a(lib_a-vfprintf.o)
                                                  c:/apps/yagarto/bin/../lib/gcc/arm-elf/4.4.2/../../../../arm-elf/lib/thumb/thumb2\libc.a(lib_a-fwrite.o)
__sinit                                           c:/apps/yagarto/bin/../lib/gcc/arm-elf/4.4.2/../../../../arm-elf/lib/thumb/thumb2\libc.a(lib_a-findfp.o)
                                                  c:/apps/yagarto/bin/../lib/gcc/arm-elf/4.4.2/../../../../arm-elf/lib/thumb/thumb2\libc.a(lib_a-fclose.o)
                                                  c:/apps/yagarto/bin/../lib/gcc/arm-elf/4.4.2/../../../../arm-elf/lib/thumb/thumb2\libc.a(lib_a-fflush.o)
                                                  c:/apps/yagarto/bin/../lib/gcc/arm-elf/4.4.2/../../../../arm-elf/lib/thumb/thumb2\libc.a(lib_a-wsetup.o)
                                                  c:/apps/yagarto/bin/../lib/gcc/arm-elf/4.4.2/../../../../arm-elf/lib/thumb/thumb2\libc.a(lib_a-vfprintf.o)
                                                  c:/apps/yagarto/bin/../lib/gcc/arm-elf/4.4.2/../../../../arm-elf/lib/thumb/thumb2\libc.a(lib_a-refill.o)
                                                  c:/apps/yagarto/bin/../lib/gcc/arm-elf/4.4.2/../../../../arm-elf/lib/thumb/thumb2\libc.a(lib_a-fwrite.o)
                                                  c:/apps/yagarto/bin/../lib/gcc/arm-elf/4.4.2/../../../../arm-elf/lib/thumb/thumb2\libc.a(lib_a-fseek.o)
__sinit_lock_acquire                              c:/apps/yagarto/bin/../lib/gcc/arm-elf/4.4.2/../../../../arm-elf/lib/thumb/thumb2\libc.a(lib_a-findfp.o)
__sinit_lock_release                              c:/apps/yagarto/bin/../lib/gcc/arm-elf/4.4.2/../../../../arm-elf/lib/thumb/thumb2\libc.a(lib_a-findfp.o)
__smakebuf_r                                      c:/apps/yagarto/bin/../lib/gcc/arm-elf/4.4.2/../../../../arm-elf/lib/thumb/thumb2\libc.a(lib_a-makebuf.o)
                                                  c:/apps/yagarto/bin/../lib/gcc/arm-elf/4.4.2/../../../../arm-elf/lib/thumb/thumb2\libc.a(lib_a-wsetup.o)
                                                  c:/apps/yagarto/bin/../lib/gcc/arm-elf/4.4.2/../../../../arm-elf/lib/thumb/thumb2\libc.a(lib_a-refill.o)
                                                  c:/apps/yagarto/bin/../lib/gcc/arm-elf/4.4.2/../../../../arm-elf/lib/thumb/thumb2\libc.a(lib_a-fseek.o)
__sread                                           c:/apps/yagarto/bin/../lib/gcc/arm-elf/4.4.2/../../../../arm-elf/lib/thumb/thumb2\libc.a(lib_a-stdio.o)
                                                  c:/apps/yagarto/bin/../lib/gcc/arm-elf/4.4.2/../../../../arm-elf/lib/thumb/thumb2\libc.a(lib_a-findfp.o)
                                                  c:/apps/yagarto/bin/../lib/gcc/arm-elf/4.4.2/../../../../arm-elf/lib/thumb/thumb2\libc.a(lib_a-fopen.o)
__srefill_r                                       c:/apps/yagarto/bin/../lib/gcc/arm-elf/4.4.2/../../../../arm-elf/lib/thumb/thumb2\libc.a(lib_a-refill.o)
                                                  c:/apps/yagarto/bin/../lib/gcc/arm-elf/4.4.2/../../../../arm-elf/lib/thumb/thumb2\libc.a(lib_a-fseek.o)
__sseek                                           c:/apps/yagarto/bin/../lib/gcc/arm-elf/4.4.2/../../../../arm-elf/lib/thumb/thumb2\libc.a(lib_a-stdio.o)
                                                  c:/apps/yagarto/bin/../lib/gcc/arm-elf/4.4.2/../../../../arm-elf/lib/thumb/thumb2\libc.a(lib_a-findfp.o)
                                                  c:/apps/yagarto/bin/../lib/gcc/arm-elf/4.4.2/../../../../arm-elf/lib/thumb/thumb2\libc.a(lib_a-makebuf.o)
                                                  c:/apps/yagarto/bin/../lib/gcc/arm-elf/4.4.2/../../../../arm-elf/lib/thumb/thumb2\libc.a(lib_a-fseek.o)
                                                  c:/apps/yagarto/bin/../lib/gcc/arm-elf/4.4.2/../../../../arm-elf/lib/thumb/thumb2\libc.a(lib_a-fopen.o)
__subdf3                                          c:/apps/yagarto/bin/../lib/gcc/arm-elf/4.4.2/thumb/thumb2\libgcc.a(_arm_addsubdf3.o)
                                                  c:/apps/yagarto/bin/../lib/gcc/arm-elf/4.4.2/../../../../arm-elf/lib/thumb/thumb2\libc.a(lib_a-dtoa.o)
__swrite                                          c:/apps/yagarto/bin/../lib/gcc/arm-elf/4.4.2/../../../../arm-elf/lib/thumb/thumb2\libc.a(lib_a-stdio.o)
                                                  c:/apps/yagarto/bin/../lib/gcc/arm-elf/4.4.2/../../../../arm-elf/lib/thumb/thumb2\libc.a(lib_a-findfp.o)
                                                  c:/apps/yagarto/bin/../lib/gcc/arm-elf/4.4.2/../../../../arm-elf/lib/thumb/thumb2\libc.a(lib_a-fopen.o)
__swsetup_r                                       c:/apps/yagarto/bin/../lib/gcc/arm-elf/4.4.2/../../../../arm-elf/lib/thumb/thumb2\libc.a(lib_a-wsetup.o)
                                                  c:/apps/yagarto/bin/../lib/gcc/arm-elf/4.4.2/../../../../arm-elf/lib/thumb/thumb2\libc.a(lib_a-fvwrite.o)
                                                  c:/apps/yagarto/bin/../lib/gcc/arm-elf/4.4.2/../../../../arm-elf/lib/thumb/thumb2\libc.a(lib_a-vfprintf.o)
__udivsi3                                         c:/apps/yagarto/bin/../lib/gcc/arm-elf/4.4.2/thumb/thumb2\libgcc.a(_udivsi3.o)
                                                  c:/apps/yagarto/bin/../lib/gcc/arm-elf/4.4.2/../../../../arm-elf/lib/thumb/thumb2\libc.a(lib_a-dtoa.o)
                                                  c:/apps/yagarto/bin/../lib/gcc/arm-elf/4.4.2/../../../../arm-elf/lib/thumb/thumb2\libc.a(lib_a-fwrite.o)
__ulp                                             c:/apps/yagarto/bin/../lib/gcc/arm-elf/4.4.2/../../../../arm-elf/lib/thumb/thumb2\libc.a(lib_a-mprec.o)
_bss                                              ./src/bsp/stm32f10x_startup.o
_calloc_r                                         c:/apps/yagarto/bin/../lib/gcc/arm-elf/4.4.2/../../../../arm-elf/lib/thumb/thumb2\libc.a(lib_a-callocr.o)
                                                  c:/apps/yagarto/bin/../lib/gcc/arm-elf/4.4.2/../../../../arm-elf/lib/thumb/thumb2\libc.a(lib_a-mprec.o)
_cleanup                                          c:/apps/yagarto/bin/../lib/gcc/arm-elf/4.4.2/../../../../arm-elf/lib/thumb/thumb2\libc.a(lib_a-findfp.o)
_cleanup_r                                        c:/apps/yagarto/bin/../lib/gcc/arm-elf/4.4.2/../../../../arm-elf/lib/thumb/thumb2\libc.a(lib_a-findfp.o)
                                                  c:/apps/yagarto/bin/../lib/gcc/arm-elf/4.4.2/../../../../arm-elf/lib/thumb/thumb2\libc.a(lib_a-makebuf.o)
_close                                            ./src/bsp/stm32f10x_syscall.o
                                                  c:/apps/yagarto/bin/../lib/gcc/arm-elf/4.4.2/../../../../arm-elf/lib/thumb/thumb2\libc.a(lib_a-closer.o)
_close_r                                          c:/apps/yagarto/bin/../lib/gcc/arm-elf/4.4.2/../../../../arm-elf/lib/thumb/thumb2\libc.a(lib_a-closer.o)
                                                  c:/apps/yagarto/bin/../lib/gcc/arm-elf/4.4.2/../../../../arm-elf/lib/thumb/thumb2\libc.a(lib_a-stdio.o)
_data                                             ./src/bsp/stm32f10x_startup.o
_dtoa_r                                           c:/apps/yagarto/bin/../lib/gcc/arm-elf/4.4.2/../../../../arm-elf/lib/thumb/thumb2\libc.a(lib_a-dtoa.o)
                                                  c:/apps/yagarto/bin/../lib/gcc/arm-elf/4.4.2/../../../../arm-elf/lib/thumb/thumb2\libc.a(lib_a-vfprintf.o)
_ebss                                             ./src/bsp/stm32f10x_startup.o
_edata                                            ./src/bsp/stm32f10x_startup.o
_esram                                            ./src/bsp/stm32f10x_startup.o
_etext                                            ./src/bsp/stm32f10x_startup.o
_exit                                             ./src/bsp/stm32f10x_syscall.o
_fclose_r                                         c:/apps/yagarto/bin/../lib/gcc/arm-elf/4.4.2/../../../../arm-elf/lib/thumb/thumb2\libc.a(lib_a-fclose.o)
_fflush_r                                         c:/apps/yagarto/bin/../lib/gcc/arm-elf/4.4.2/../../../../arm-elf/lib/thumb/thumb2\libc.a(lib_a-fflush.o)
                                                  c:/apps/yagarto/bin/../lib/gcc/arm-elf/4.4.2/../../../../arm-elf/lib/thumb/thumb2\libc.a(lib_a-fclose.o)
                                                  c:/apps/yagarto/bin/../lib/gcc/arm-elf/4.4.2/../../../../arm-elf/lib/thumb/thumb2\libc.a(lib_a-fvwrite.o)
                                                  c:/apps/yagarto/bin/../lib/gcc/arm-elf/4.4.2/../../../../arm-elf/lib/thumb/thumb2\libc.a(lib_a-vfprintf.o)
                                                  c:/apps/yagarto/bin/../lib/gcc/arm-elf/4.4.2/../../../../arm-elf/lib/thumb/thumb2\libc.a(lib_a-refill.o)
                                                  c:/apps/yagarto/bin/../lib/gcc/arm-elf/4.4.2/../../../../arm-elf/lib/thumb/thumb2\libc.a(lib_a-fseek.o)
_fopen_r                                          c:/apps/yagarto/bin/../lib/gcc/arm-elf/4.4.2/../../../../arm-elf/lib/thumb/thumb2\libc.a(lib_a-fopen.o)
_fprintf_r                                        c:/apps/yagarto/bin/../lib/gcc/arm-elf/4.4.2/../../../../arm-elf/lib/thumb/thumb2\libc.a(lib_a-fprintf.o)
_free_r                                           c:/apps/yagarto/bin/../lib/gcc/arm-elf/4.4.2/../../../../arm-elf/lib/thumb/thumb2\libc.a(lib_a-freer.o)
                                                  c:/apps/yagarto/bin/../lib/gcc/arm-elf/4.4.2/../../../../arm-elf/lib/thumb/thumb2\libc.a(lib_a-fclose.o)
                                                  c:/apps/yagarto/bin/../lib/gcc/arm-elf/4.4.2/../../../../arm-elf/lib/thumb/thumb2\libc.a(lib_a-reallocr.o)
                                                  c:/apps/yagarto/bin/../lib/gcc/arm-elf/4.4.2/../../../../arm-elf/lib/thumb/thumb2\libc.a(lib_a-malloc.o)
                                                  c:/apps/yagarto/bin/../lib/gcc/arm-elf/4.4.2/../../../../arm-elf/lib/thumb/thumb2\libc.a(lib_a-fvwrite.o)
                                                  c:/apps/yagarto/bin/../lib/gcc/arm-elf/4.4.2/../../../../arm-elf/lib/thumb/thumb2\libc.a(lib_a-fflush.o)
                                                  c:/apps/yagarto/bin/../lib/gcc/arm-elf/4.4.2/../../../../arm-elf/lib/thumb/thumb2\libc.a(lib_a-wsetup.o)
                                                  c:/apps/yagarto/bin/../lib/gcc/arm-elf/4.4.2/../../../../arm-elf/lib/thumb/thumb2\libc.a(lib_a-refill.o)
                                                  c:/apps/yagarto/bin/../lib/gcc/arm-elf/4.4.2/../../../../arm-elf/lib/thumb/thumb2\libc.a(lib_a-reent.o)
                                                  c:/apps/yagarto/bin/../lib/gcc/arm-elf/4.4.2/../../../../arm-elf/lib/thumb/thumb2\libc.a(lib_a-mallocr.o)
                                                  c:/apps/yagarto/bin/../lib/gcc/arm-elf/4.4.2/../../../../arm-elf/lib/thumb/thumb2\libc.a(lib_a-fseek.o)
_fseek_r                                          c:/apps/yagarto/bin/../lib/gcc/arm-elf/4.4.2/../../../../arm-elf/lib/thumb/thumb2\libc.a(lib_a-fseek.o)
                                                  c:/apps/yagarto/bin/../lib/gcc/arm-elf/4.4.2/../../../../arm-elf/lib/thumb/thumb2\libc.a(lib_a-fopen.o)
_fstat                                            ./src/bsp/stm32f10x_syscall.o
                                                  c:/apps/yagarto/bin/../lib/gcc/arm-elf/4.4.2/../../../../arm-elf/lib/thumb/thumb2\libc.a(lib_a-fstatr.o)
_fstat_r                                          c:/apps/yagarto/bin/../lib/gcc/arm-elf/4.4.2/../../../../arm-elf/lib/thumb/thumb2\libc.a(lib_a-fstatr.o)
                                                  c:/apps/yagarto/bin/../lib/gcc/arm-elf/4.4.2/../../../../arm-elf/lib/thumb/thumb2\libc.a(lib_a-makebuf.o)
                                                  c:/apps/yagarto/bin/../lib/gcc/arm-elf/4.4.2/../../../../arm-elf/lib/thumb/thumb2\libc.a(lib_a-fseek.o)
_fwalk                                            c:/apps/yagarto/bin/../lib/gcc/arm-elf/4.4.2/../../../../arm-elf/lib/thumb/thumb2\libc.a(lib_a-fwalk.o)
                                                  c:/apps/yagarto/bin/../lib/gcc/arm-elf/4.4.2/../../../../arm-elf/lib/thumb/thumb2\libc.a(lib_a-findfp.o)
                                                  c:/apps/yagarto/bin/../lib/gcc/arm-elf/4.4.2/../../../../arm-elf/lib/thumb/thumb2\libc.a(lib_a-refill.o)
_fwalk_reent                                      c:/apps/yagarto/bin/../lib/gcc/arm-elf/4.4.2/../../../../arm-elf/lib/thumb/thumb2\libc.a(lib_a-fwalk.o)
                                                  c:/apps/yagarto/bin/../lib/gcc/arm-elf/4.4.2/../../../../arm-elf/lib/thumb/thumb2\libc.a(lib_a-fflush.o)
_fwrite_r                                         c:/apps/yagarto/bin/../lib/gcc/arm-elf/4.4.2/../../../../arm-elf/lib/thumb/thumb2\libc.a(lib_a-fwrite.o)
_global_impure_ptr                                c:/apps/yagarto/bin/../lib/gcc/arm-elf/4.4.2/../../../../arm-elf/lib/thumb/thumb2\libc.a(lib_a-impure.o)
                                                  c:/apps/yagarto/bin/../lib/gcc/arm-elf/4.4.2/../../../../arm-elf/lib/thumb/thumb2\libc.a(lib_a-findfp.o)
                                                  c:/apps/yagarto/bin/../lib/gcc/arm-elf/4.4.2/../../../../arm-elf/lib/thumb/thumb2\libc.a(lib_a-fflush.o)
                                                  c:/apps/yagarto/bin/../lib/gcc/arm-elf/4.4.2/../../../../arm-elf/lib/thumb/thumb2\libc.a(lib_a-refill.o)
_heap                                             ./src/bsp/stm32f10x_syscall.o
                                                  ./src/bsp/stm32f10x_startup.o
_impure_ptr                                       c:/apps/yagarto/bin/../lib/gcc/arm-elf/4.4.2/../../../../arm-elf/lib/thumb/thumb2\libc.a(lib_a-impure.o)
                                                  c:/apps/yagarto/bin/../lib/gcc/arm-elf/4.4.2/../../../../arm-elf/lib/thumb/thumb2\libc.a(lib_a-fclose.o)
                                                  c:/apps/yagarto/bin/../lib/gcc/arm-elf/4.4.2/../../../../arm-elf/lib/thumb/thumb2\libc.a(lib_a-malloc.o)
                                                  c:/apps/yagarto/bin/../lib/gcc/arm-elf/4.4.2/../../../../arm-elf/lib/thumb/thumb2\libc.a(lib_a-locale.o)
                                                  c:/apps/yagarto/bin/../lib/gcc/arm-elf/4.4.2/../../../../arm-elf/lib/thumb/thumb2\libc.a(lib_a-findfp.o)
                                                  c:/apps/yagarto/bin/../lib/gcc/arm-elf/4.4.2/../../../../arm-elf/lib/thumb/thumb2\libc.a(lib_a-fflush.o)
                                                  c:/apps/yagarto/bin/../lib/gcc/arm-elf/4.4.2/../../../../arm-elf/lib/thumb/thumb2\libc.a(lib_a-wsetup.o)
                                                  c:/apps/yagarto/bin/../lib/gcc/arm-elf/4.4.2/../../../../arm-elf/lib/thumb/thumb2\libc.a(lib_a-vfprintf.o)
                                                  c:/apps/yagarto/bin/../lib/gcc/arm-elf/4.4.2/../../../../arm-elf/lib/thumb/thumb2\libc.a(lib_a-reent.o)
                                                  c:/apps/yagarto/bin/../lib/gcc/arm-elf/4.4.2/../../../../arm-elf/lib/thumb/thumb2\libc.a(lib_a-rand.o)
                                                  c:/apps/yagarto/bin/../lib/gcc/arm-elf/4.4.2/../../../../arm-elf/lib/thumb/thumb2\libc.a(lib_a-fwrite.o)
                                                  c:/apps/yagarto/bin/../lib/gcc/arm-elf/4.4.2/../../../../arm-elf/lib/thumb/thumb2\libc.a(lib_a-fseek.o)
                                                  c:/apps/yagarto/bin/../lib/gcc/arm-elf/4.4.2/../../../../arm-elf/lib/thumb/thumb2\libc.a(lib_a-fprintf.o)
                                                  c:/apps/yagarto/bin/../lib/gcc/arm-elf/4.4.2/../../../../arm-elf/lib/thumb/thumb2\libc.a(lib_a-fopen.o)
_isatty                                           ./src/bsp/stm32f10x_syscall.o
                                                  c:/apps/yagarto/bin/../lib/gcc/arm-elf/4.4.2/../../../../arm-elf/lib/thumb/thumb2\libc.a(lib_a-isattyr.o)
_isatty_r                                         c:/apps/yagarto/bin/../lib/gcc/arm-elf/4.4.2/../../../../arm-elf/lib/thumb/thumb2\libc.a(lib_a-isattyr.o)
                                                  c:/apps/yagarto/bin/../lib/gcc/arm-elf/4.4.2/../../../../arm-elf/lib/thumb/thumb2\libc.a(lib_a-makebuf.o)
_localeconv_r                                     c:/apps/yagarto/bin/../lib/gcc/arm-elf/4.4.2/../../../../arm-elf/lib/thumb/thumb2\libc.a(lib_a-locale.o)
                                                  c:/apps/yagarto/bin/../lib/gcc/arm-elf/4.4.2/../../../../arm-elf/lib/thumb/thumb2\libc.a(lib_a-vfprintf.o)
_lseek                                            ./src/bsp/stm32f10x_syscall.o
                                                  c:/apps/yagarto/bin/../lib/gcc/arm-elf/4.4.2/../../../../arm-elf/lib/thumb/thumb2\libc.a(lib_a-lseekr.o)
_lseek_r                                          c:/apps/yagarto/bin/../lib/gcc/arm-elf/4.4.2/../../../../arm-elf/lib/thumb/thumb2\libc.a(lib_a-lseekr.o)
                                                  c:/apps/yagarto/bin/../lib/gcc/arm-elf/4.4.2/../../../../arm-elf/lib/thumb/thumb2\libc.a(lib_a-stdio.o)
_main_stack                                       ./src/bsp/stm32f10x_syscall.o
                                                  ./src/bsp/stm32f10x_startup.o
                                                  ./src/bsp/app_vect.o
_malloc_r                                         c:/apps/yagarto/bin/../lib/gcc/arm-elf/4.4.2/../../../../arm-elf/lib/thumb/thumb2\libc.a(lib_a-mallocr.o)
                                                  c:/apps/yagarto/bin/../lib/gcc/arm-elf/4.4.2/../../../../arm-elf/lib/thumb/thumb2\libc.a(lib_a-callocr.o)
                                                  c:/apps/yagarto/bin/../lib/gcc/arm-elf/4.4.2/../../../../arm-elf/lib/thumb/thumb2\libc.a(lib_a-reallocr.o)
                                                  c:/apps/yagarto/bin/../lib/gcc/arm-elf/4.4.2/../../../../arm-elf/lib/thumb/thumb2\libc.a(lib_a-malloc.o)
                                                  c:/apps/yagarto/bin/../lib/gcc/arm-elf/4.4.2/../../../../arm-elf/lib/thumb/thumb2\libc.a(lib_a-fvwrite.o)
                                                  c:/apps/yagarto/bin/../lib/gcc/arm-elf/4.4.2/../../../../arm-elf/lib/thumb/thumb2\libc.a(lib_a-findfp.o)
                                                  c:/apps/yagarto/bin/../lib/gcc/arm-elf/4.4.2/../../../../arm-elf/lib/thumb/thumb2\libc.a(lib_a-makebuf.o)
_malloc_trim_r                                    c:/apps/yagarto/bin/../lib/gcc/arm-elf/4.4.2/../../../../arm-elf/lib/thumb/thumb2\libc.a(lib_a-freer.o)
_mprec_log10                                      c:/apps/yagarto/bin/../lib/gcc/arm-elf/4.4.2/../../../../arm-elf/lib/thumb/thumb2\libc.a(lib_a-mprec.o)
_open                                             ./src/bsp/stm32f10x_syscall.o
                                                  c:/apps/yagarto/bin/../lib/gcc/arm-elf/4.4.2/../../../../arm-elf/lib/thumb/thumb2\libc.a(lib_a-openr.o)
_open_r                                           c:/apps/yagarto/bin/../lib/gcc/arm-elf/4.4.2/../../../../arm-elf/lib/thumb/thumb2\libc.a(lib_a-openr.o)
                                                  c:/apps/yagarto/bin/../lib/gcc/arm-elf/4.4.2/../../../../arm-elf/lib/thumb/thumb2\libc.a(lib_a-fopen.o)
_read                                             ./src/bsp/stm32f10x_syscall.o
                                                  c:/apps/yagarto/bin/../lib/gcc/arm-elf/4.4.2/../../../../arm-elf/lib/thumb/thumb2\libc.a(lib_a-readr.o)
_read_r                                           c:/apps/yagarto/bin/../lib/gcc/arm-elf/4.4.2/../../../../arm-elf/lib/thumb/thumb2\libc.a(lib_a-readr.o)
                                                  c:/apps/yagarto/bin/../lib/gcc/arm-elf/4.4.2/../../../../arm-elf/lib/thumb/thumb2\libc.a(lib_a-stdio.o)
_realloc_r                                        c:/apps/yagarto/bin/../lib/gcc/arm-elf/4.4.2/../../../../arm-elf/lib/thumb/thumb2\libc.a(lib_a-reallocr.o)
                                                  c:/apps/yagarto/bin/../lib/gcc/arm-elf/4.4.2/../../../../arm-elf/lib/thumb/thumb2\libc.a(lib_a-fvwrite.o)
_reclaim_reent                                    c:/apps/yagarto/bin/../lib/gcc/arm-elf/4.4.2/../../../../arm-elf/lib/thumb/thumb2\libc.a(lib_a-reent.o)
_sbrk                                             ./src/bsp/stm32f10x_syscall.o
                                                  c:/apps/yagarto/bin/../lib/gcc/arm-elf/4.4.2/../../../../arm-elf/lib/thumb/thumb2\libc.a(lib_a-sbrkr.o)
_sbrk_r                                           c:/apps/yagarto/bin/../lib/gcc/arm-elf/4.4.2/../../../../arm-elf/lib/thumb/thumb2\libc.a(lib_a-sbrkr.o)
                                                  c:/apps/yagarto/bin/../lib/gcc/arm-elf/4.4.2/../../../../arm-elf/lib/thumb/thumb2\libc.a(lib_a-freer.o)
                                                  c:/apps/yagarto/bin/../lib/gcc/arm-elf/4.4.2/../../../../arm-elf/lib/thumb/thumb2\libc.a(lib_a-mallocr.o)
_setlocale_r                                      c:/apps/yagarto/bin/../lib/gcc/arm-elf/4.4.2/../../../../arm-elf/lib/thumb/thumb2\libc.a(lib_a-locale.o)
_vfprintf_r                                       c:/apps/yagarto/bin/../lib/gcc/arm-elf/4.4.2/../../../../arm-elf/lib/thumb/thumb2\libc.a(lib_a-vfprintf.o)
                                                  c:/apps/yagarto/bin/../lib/gcc/arm-elf/4.4.2/../../../../arm-elf/lib/thumb/thumb2\libc.a(lib_a-fprintf.o)
_wrapup_reent                                     c:/apps/yagarto/bin/../lib/gcc/arm-elf/4.4.2/../../../../arm-elf/lib/thumb/thumb2\libc.a(lib_a-reent.o)
_write                                            ./src/bsp/stm32f10x_syscall.o
                                                  c:/apps/yagarto/bin/../lib/gcc/arm-elf/4.4.2/../../../../arm-elf/lib/thumb/thumb2\libc.a(lib_a-writer.o)
_write_r                                          c:/apps/yagarto/bin/../lib/gcc/arm-elf/4.4.2/../../../../arm-elf/lib/thumb/thumb2\libc.a(lib_a-writer.o)
                                                  c:/apps/yagarto/bin/../lib/gcc/arm-elf/4.4.2/../../../../arm-elf/lib/thumb/thumb2\libc.a(lib_a-stdio.o)
bDeviceState                                      ./src/usb/usb_pwr.o
                                                  ./src/usb/hw_config.o
                                                  ./src/usb/usb_prop.o
bIntPackSOF                                       ./src/usb/usb_istr.o
buffer_in                                         ./src/usb/hw_config.o
buffer_out                                        ./src/usb/usb_endp.o
                                                  ./src/bsp/bsp_globals.o
cleanup_glue                                      c:/apps/yagarto/bin/../lib/gcc/arm-elf/4.4.2/../../../../arm-elf/lib/thumb/thumb2\libc.a(lib_a-reent.o)
count_in                                          ./src/usb/usb_endp.o
                                                  ./src/usb/hw_config.o
count_out                                         ./src/bsp/bsp_globals.o
                                                  ./src/usb/usb_endp.o
device_operation_table_DUMMIE                     ./src/bsp/stm32f10x_syscall.o
device_operation_table_USART1                     ./src/bsp/stm32f10x_syscall.o
device_operation_table_USART3                     ./src/bsp/stm32f10x_syscall.o
device_table_list                                 ./src/bsp/stm32f10x_syscall.o
eBuffercmp                                        ./src/bsp/bsp_utils.o
                                                  ./src/bsp/bsp.o
errno                                             c:/apps/yagarto/bin/../lib/gcc/arm-elf/4.4.2/../../../../arm-elf/lib/thumb/thumb2\libc.a(lib_a-readr.o)
                                                  c:/apps/yagarto/bin/../lib/gcc/arm-elf/4.4.2/../../../../arm-elf/lib/thumb/thumb2\libc.a(lib_a-lseekr.o)
                                                  c:/apps/yagarto/bin/../lib/gcc/arm-elf/4.4.2/../../../../arm-elf/lib/thumb/thumb2\libc.a(lib_a-isattyr.o)
                                                  c:/apps/yagarto/bin/../lib/gcc/arm-elf/4.4.2/../../../../arm-elf/lib/thumb/thumb2\libc.a(lib_a-closer.o)
                                                  c:/apps/yagarto/bin/../lib/gcc/arm-elf/4.4.2/../../../../arm-elf/lib/thumb/thumb2\libc.a(lib_a-writer.o)
                                                  c:/apps/yagarto/bin/../lib/gcc/arm-elf/4.4.2/../../../../arm-elf/lib/thumb/thumb2\libc.a(lib_a-sbrkr.o)
                                                  c:/apps/yagarto/bin/../lib/gcc/arm-elf/4.4.2/../../../../arm-elf/lib/thumb/thumb2\libc.a(lib_a-reent.o)
                                                  c:/apps/yagarto/bin/../lib/gcc/arm-elf/4.4.2/../../../../arm-elf/lib/thumb/thumb2\libc.a(lib_a-openr.o)
                                                  c:/apps/yagarto/bin/../lib/gcc/arm-elf/4.4.2/../../../../arm-elf/lib/thumb/thumb2\libc.a(lib_a-fstatr.o)
fSuspendEnabled                                   ./src/usb/usb_pwr.o
fclose                                            c:/apps/yagarto/bin/../lib/gcc/arm-elf/4.4.2/../../../../arm-elf/lib/thumb/thumb2\libc.a(lib_a-fclose.o)
                                                  c:/apps/yagarto/bin/../lib/gcc/arm-elf/4.4.2/../../../../arm-elf/lib/thumb/thumb2\libc.a(lib_a-findfp.o)
fflush                                            c:/apps/yagarto/bin/../lib/gcc/arm-elf/4.4.2/../../../../arm-elf/lib/thumb/thumb2\libc.a(lib_a-fflush.o)
                                                  c:/apps/yagarto/bin/../lib/gcc/arm-elf/4.4.2/../../../../arm-elf/lib/thumb/thumb2\libc.a(lib_a-refill.o)
fopen                                             c:/apps/yagarto/bin/../lib/gcc/arm-elf/4.4.2/../../../../arm-elf/lib/thumb/thumb2\libc.a(lib_a-fopen.o)
                                                  ./src/application/app.o
fp_usart1                                         ./src/application/app.o
fprintf                                           c:/apps/yagarto/bin/../lib/gcc/arm-elf/4.4.2/../../../../arm-elf/lib/thumb/thumb2\libc.a(lib_a-fprintf.o)
                                                  ./src/application/app.o
free                                              c:/apps/yagarto/bin/../lib/gcc/arm-elf/4.4.2/../../../../arm-elf/lib/thumb/thumb2\libc.a(lib_a-malloc.o)
fseek                                             c:/apps/yagarto/bin/../lib/gcc/arm-elf/4.4.2/../../../../arm-elf/lib/thumb/thumb2\libc.a(lib_a-fseek.o)
fwrite                                            c:/apps/yagarto/bin/../lib/gcc/arm-elf/4.4.2/../../../../arm-elf/lib/thumb/thumb2\libc.a(lib_a-fwrite.o)
                                                  ./src/application/app.o
g_pfnVectors                                      ./src/bsp/app_vect.o
linecoding                                        ./src/usb/usb_prop.o
                                                  ./src/usb/hw_config.o
localeconv                                        c:/apps/yagarto/bin/../lib/gcc/arm-elf/4.4.2/../../../../arm-elf/lib/thumb/thumb2\libc.a(lib_a-locale.o)
main                                              ./src/application/app.o
                                                  ./src/bsp/stm32f10x_startup.o
malloc                                            c:/apps/yagarto/bin/../lib/gcc/arm-elf/4.4.2/../../../../arm-elf/lib/thumb/thumb2\libc.a(lib_a-malloc.o)
                                                  c:/apps/yagarto/bin/../lib/gcc/arm-elf/4.4.2/../../../../arm-elf/lib/thumb/thumb2\libc.a(lib_a-mprec.o)
                                                  c:/apps/yagarto/bin/../lib/gcc/arm-elf/4.4.2/../../../../arm-elf/lib/thumb/thumb2\libc.a(lib_a-dtoa.o)
                                                  c:/apps/yagarto/bin/../lib/gcc/arm-elf/4.4.2/../../../../arm-elf/lib/thumb/thumb2\libc.a(lib_a-rand.o)
memchr                                            c:/apps/yagarto/bin/../lib/gcc/arm-elf/4.4.2/../../../../arm-elf/lib/thumb/thumb2\libc.a(lib_a-memchr.o)
                                                  c:/apps/yagarto/bin/../lib/gcc/arm-elf/4.4.2/../../../../arm-elf/lib/thumb/thumb2\libc.a(lib_a-fvwrite.o)
                                                  c:/apps/yagarto/bin/../lib/gcc/arm-elf/4.4.2/../../../../arm-elf/lib/thumb/thumb2\libc.a(lib_a-vfprintf.o)
memcpy                                            c:/apps/yagarto/bin/../lib/gcc/arm-elf/4.4.2/../../../../arm-elf/lib/thumb/thumb2\libc.a(lib_a-memcpy.o)
                                                  c:/apps/yagarto/bin/../lib/gcc/arm-elf/4.4.2/../../../../arm-elf/lib/thumb/thumb2\libc.a(lib_a-mprec.o)
                                                  c:/apps/yagarto/bin/../lib/gcc/arm-elf/4.4.2/../../../../arm-elf/lib/thumb/thumb2\libc.a(lib_a-fvwrite.o)
                                                  c:/apps/yagarto/bin/../lib/gcc/arm-elf/4.4.2/../../../../arm-elf/lib/thumb/thumb2\libc.a(lib_a-dtoa.o)
memmove                                           c:/apps/yagarto/bin/../lib/gcc/arm-elf/4.4.2/../../../../arm-elf/lib/thumb/thumb2\libc.a(lib_a-memmove.o)
                                                  c:/apps/yagarto/bin/../lib/gcc/arm-elf/4.4.2/../../../../arm-elf/lib/thumb/thumb2\libc.a(lib_a-reallocr.o)
                                                  c:/apps/yagarto/bin/../lib/gcc/arm-elf/4.4.2/../../../../arm-elf/lib/thumb/thumb2\libc.a(lib_a-fvwrite.o)
memset                                            c:/apps/yagarto/bin/../lib/gcc/arm-elf/4.4.2/../../../../arm-elf/lib/thumb/thumb2\libc.a(lib_a-memset.o)
                                                  c:/apps/yagarto/bin/../lib/gcc/arm-elf/4.4.2/../../../../arm-elf/lib/thumb/thumb2\libc.a(lib_a-callocr.o)
                                                  c:/apps/yagarto/bin/../lib/gcc/arm-elf/4.4.2/../../../../arm-elf/lib/thumb/thumb2\libc.a(lib_a-findfp.o)
                                                  c:/apps/yagarto/bin/../lib/gcc/arm-elf/4.4.2/../../../../arm-elf/lib/thumb/thumb2\libc.a(lib_a-fseek.o)
pEpInt_IN                                         ./src/usb/usb_istr.o
                                                  ./lib/./STM32_USB-FS-Device_Driver/src/usb_int.o
pEpInt_OUT                                        ./src/usb/usb_istr.o
                                                  ./lib/./STM32_USB-FS-Device_Driver/src/usb_int.o
pInformation                                      ./src/usb/usb_prop.o
                                                  ./lib/./STM32_USB-FS-Device_Driver/src/usb_init.o
                                                  ./lib/./STM32_USB-FS-Device_Driver/src/usb_core.o
pProperty                                         ./lib/./STM32_USB-FS-Device_Driver/src/usb_init.o
                                                  ./lib/./STM32_USB-FS-Device_Driver/src/usb_core.o
pUser_Standard_Requests                           ./lib/./STM32_USB-FS-Device_Driver/src/usb_init.o
                                                  ./lib/./STM32_USB-FS-Device_Driver/src/usb_core.o
rand                                              c:/apps/yagarto/bin/../lib/gcc/arm-elf/4.4.2/../../../../arm-elf/lib/thumb/thumb2\libc.a(lib_a-rand.o)
                                                  ./src/sram/fsmc_sram.o
setlocale                                         c:/apps/yagarto/bin/../lib/gcc/arm-elf/4.4.2/../../../../arm-elf/lib/thumb/thumb2\libc.a(lib_a-locale.o)
srand                                             c:/apps/yagarto/bin/../lib/gcc/arm-elf/4.4.2/../../../../arm-elf/lib/thumb/thumb2\libc.a(lib_a-rand.o)
                                                  ./src/sram/fsmc_sram.o
strcmp                                            c:/apps/yagarto/bin/../lib/gcc/arm-elf/4.4.2/../../../../arm-elf/lib/thumb/thumb2\libc.a(lib_a-strcmp.o)
                                                  c:/apps/yagarto/bin/../lib/gcc/arm-elf/4.4.2/../../../../arm-elf/lib/thumb/thumb2\libc.a(lib_a-locale.o)
                                                  ./src/bsp/stm32f10x_syscall.o
strlen                                            c:/apps/yagarto/bin/../lib/gcc/arm-elf/4.4.2/../../../../arm-elf/lib/thumb/thumb2\libc.a(lib_a-strlen.o)
                                                  c:/apps/yagarto/bin/../lib/gcc/arm-elf/4.4.2/../../../../arm-elf/lib/thumb/thumb2\libc.a(lib_a-vfprintf.o)
vfprintf                                          c:/apps/yagarto/bin/../lib/gcc/arm-elf/4.4.2/../../../../arm-elf/lib/thumb/thumb2\libc.a(lib_a-vfprintf.o)
wInterrupt_Mask                                   ./src/usb/usb_pwr.o
                                                  ./src/usb/usb_istr.o
                                                  ./lib/./STM32_USB-FS-Device_Driver/src/usb_sil.o
                                                  ./lib/./STM32_USB-FS-Device_Driver/src/usb_init.o
wIstr                                             ./src/usb/usb_istr.o
                                                  ./lib/./STM32_USB-FS-Device_Driver/src/usb_int.o
